ARM Linker, 4.1 [Build 894] [Standard]

==============================================================================

Section Cross References

    main.o(.text) refers to ch376_api.o(.text) for InitUSB
    main.o(.text) refers to sys.o(.text) for NVIC_Configuration
    main.o(.text) refers to delay.o(.text) for delay_init
    main.o(.text) refers to usart.o(.text) for uart_printer_init
    main.o(.text) refers to rc522.o(.text) for InitRfid
    main.o(.text) refers to flash.o(.text) for SPI_Flash_Init
    main.o(.text) refers to malloc.o(.text) for mem_init
    main.o(.text) refers to exfuns.o(.text) for exfuns_init
    main.o(.text) refers to rtc.o(.text) for RTC_Init
    main.o(.text) refers to ff.o(.text) for f_mount
    main.o(.text) refers to lcdopt.o(.text) for lcdopt_init
    main.o(.text) refers to fileopt.o(.text) for fileopt_init
    main.o(.text) refers to os_cpu_a.o(.text) for OS_CPU_SR_Save
    main.o(.text) refers to os_task.o(.text) for OSTaskCreate
    main.o(.text) refers to os_core.o(.text) for OSInit
    main.o(.text) refers to exfuns.o(.data) for fs
    main.o(.text) refers to main.o(.bss) for MAIN_TASK_STK
    stm32f10x_it.o(.text) refers to stm32f10x_dma.o(.text) for DMA_GetITStatus
    system_stm32f10x.o(.text) refers to system_stm32f10x.o(.data) for SystemCoreClock
    spi.o(.text) refers to stm32f10x_spi.o(.text) for SPI_I2S_GetFlagStatus
    spi.o(.text) refers to stm32f10x_rcc.o(.text) for RCC_APB2PeriphClockCmd
    spi.o(.text) refers to stm32f10x_gpio.o(.text) for GPIO_Init
    spi.o(.text) refers to spi.o(.bss) for SPI_InitStructure
    flash.o(.text) refers to spi.o(.text) for SPI1_ReadWriteByte
    flash.o(.text) refers to stm32f10x_rcc.o(.text) for RCC_APB2PeriphClockCmd
    flash.o(.text) refers to stm32f10x_gpio.o(.text) for GPIO_Init
    flash.o(.text) refers to delay.o(.text) for delay_us
    flash.o(.text) refers to flash.o(.data) for SPI_FLASH_TYPE
    flash.o(.text) refers to flash.o(.bss) for SPI_FLASH_BUF
    mmc_sd.o(.text) refers to spi.o(.text) for SPI1_ReadWriteByte
    mmc_sd.o(.text) refers to stm32f10x_rcc.o(.text) for RCC_APB2PeriphClockCmd
    mmc_sd.o(.text) refers to stm32f10x_gpio.o(.text) for GPIO_Init
    mmc_sd.o(.text) refers to mmc_sd.o(.data) for SD_Type
    rc522.o(.text) refers to stm32f10x_gpio.o(.text) for GPIO_ResetBits
    rc522.o(.text) refers to rt_memclr_w.o(.text) for __aeabi_memclr4
    rc522.o(.text) refers to delay.o(.text) for delay_us
    rc522.o(.text) refers to spi.o(.text) for Myspi_Init
    rc522.o(.text) refers to util.o(.text) for my_itoa
    rc522.o(.text) refers to strcat.o(.text) for strcat
    hx711.o(.text) refers to stm32f10x_gpio.o(.text) for GPIO_Init
    hx711.o(.text) refers to delay.o(.text) for delay_us
    hx711.o(.text) refers to fflt_clz.o(x$fpl$ffltu) for __aeabi_ui2f
    hx711.o(.text) refers to f2d.o(x$fpl$f2d) for __aeabi_f2d
    hx711.o(.text) refers to dmul.o(x$fpl$dmul) for __aeabi_dmul
    hx711.o(.text) refers to d2f.o(x$fpl$d2f) for __aeabi_d2f
    hx711.o(.text) refers to fdiv.o(x$fpl$fdiv) for __aeabi_fdiv
    hx711.o(.text) refers to fleqf.o(x$fpl$fleqf) for __aeabi_cfcmple
    hx711.o(.text) refers to faddsub_clz.o(x$fpl$frsb) for __aeabi_frsub
    hx711.o(.text) refers to daddsub_clz.o(x$fpl$dadd) for __aeabi_dadd
    rtc.o(.text) refers to misc.o(.text) for NVIC_Init
    rtc.o(.text) refers to stm32f10x_rtc.o(.text) for RTC_GetCounter
    rtc.o(.text) refers to stm32f10x_rcc.o(.text) for RCC_APB1PeriphClockCmd
    rtc.o(.text) refers to stm32f10x_pwr.o(.text) for PWR_BackupAccessCmd
    rtc.o(.text) refers to stm32f10x_bkp.o(.text) for BKP_ReadBackupRegister
    rtc.o(.text) refers to delay.o(.text) for delay_ms
    rtc.o(.text) refers to rtc.o(.constdata) for table_week
    rtc.o(.text) refers to rtc.o(.data) for daycnt
    rtc.o(.text) refers to rtc.o(.bss) for calendar
    ch376_spi.o(.text) refers to delay.o(.text) for delay_us
    file_sys.o(.text) refers to ch376_spi.o(.text) for xWriteCH376Cmd
    file_sys.o(.text) refers to delay.o(.text) for delay_ms
    delay.o(.text) refers to os_core.o(.text) for OSIntEnter
    delay.o(.text) refers to misc.o(.text) for SysTick_CLKSourceConfig
    delay.o(.text) refers to os_time.o(.text) for OSTimeDly
    delay.o(.text) refers to system_stm32f10x.o(.data) for SystemCoreClock
    delay.o(.text) refers to delay.o(.data) for fac_us
    delay.o(.text) refers to os_core.o(.data) for OSRunning
    sys.o(.text) refers to misc.o(.text) for NVIC_PriorityGroupConfig
    usart.o(.text) refers (Special) to use_no_semi_2.o(.text) for __use_no_semihosting
    usart.o(.text) refers to os_core.o(.text) for OSIntEnter
    usart.o(.text) refers to stm32f10x_usart.o(.text) for USART_GetITStatus
    usart.o(.text) refers to stm32f10x_rcc.o(.text) for RCC_APB2PeriphClockCmd
    usart.o(.text) refers to stm32f10x_gpio.o(.text) for GPIO_Init
    usart.o(.text) refers to misc.o(.text) for NVIC_Init
    usart.o(.text) refers to stm32f10x_dma.o(.text) for DMA_DeInit
    usart.o(.text) refers to usart.o(.bss) for USART_RX_BUF
    usart.o(.text) refers to usart.o(.data) for USART_RX_STA
    usart.o(.bss) refers (Special) to use_no_semi_2.o(.text) for __use_no_semihosting
    usart.o(.data) refers (Special) to use_no_semi_2.o(.text) for __use_no_semihosting
    startup_stm32f10x_hd.o(STACK) refers (Special) to heapauxi.o(.text) for __use_two_region_memory
    startup_stm32f10x_hd.o(HEAP) refers (Special) to heapauxi.o(.text) for __use_two_region_memory
    startup_stm32f10x_hd.o(RESET) refers (Special) to heapauxi.o(.text) for __use_two_region_memory
    startup_stm32f10x_hd.o(RESET) refers to startup_stm32f10x_hd.o(STACK) for __initial_sp
    startup_stm32f10x_hd.o(RESET) refers to startup_stm32f10x_hd.o(.text) for Reset_Handler
    startup_stm32f10x_hd.o(RESET) refers to stm32f10x_it.o(.text) for NMI_Handler
    startup_stm32f10x_hd.o(RESET) refers to os_cpu_a.o(.text) for PendSV_Handler
    startup_stm32f10x_hd.o(RESET) refers to delay.o(.text) for SysTick_Handler
    startup_stm32f10x_hd.o(RESET) refers to rtc.o(.text) for RTC_IRQHandler
    startup_stm32f10x_hd.o(RESET) refers to usart.o(.text) for USART2_IRQHandler
    startup_stm32f10x_hd.o(.text) refers (Special) to heapauxi.o(.text) for __use_two_region_memory
    startup_stm32f10x_hd.o(.text) refers to system_stm32f10x.o(.text) for SystemInit
    startup_stm32f10x_hd.o(.text) refers to __main.o(!!!main) for __main
    startup_stm32f10x_hd.o(.text) refers to startup_stm32f10x_hd.o(HEAP) for Heap_Mem
    startup_stm32f10x_hd.o(.text) refers to startup_stm32f10x_hd.o(STACK) for Stack_Mem
    stm32f10x_gpio.o(.text) refers to stm32f10x_rcc.o(.text) for RCC_APB2PeriphResetCmd
    stm32f10x_rcc.o(.text) refers to stm32f10x_rcc.o(.data) for APBAHBPrescTable
    stm32f10x_usart.o(.text) refers to stm32f10x_rcc.o(.text) for RCC_APB2PeriphResetCmd
    stm32f10x_spi.o(.text) refers to stm32f10x_rcc.o(.text) for RCC_APB2PeriphResetCmd
    stm32f10x_bkp.o(.text) refers to stm32f10x_rcc.o(.text) for RCC_BackupResetCmd
    stm32f10x_pwr.o(.text) refers to stm32f10x_rcc.o(.text) for RCC_APB1PeriphResetCmd
    os_core.o(.text) refers to os_task.o(.text) for OSTaskStkChk
    os_core.o(.text) refers to os_time.o(.text) for OSTimeDly
    os_core.o(.text) refers to os_cpu_a.o(.text) for OS_CPU_SR_Save
    os_core.o(.text) refers to os_cpu_c.o(.text) for OSTaskStatHook
    os_core.o(.text) refers to os_flag.o(.text) for OS_FlagInit
    os_core.o(.text) refers to os_q.o(.text) for OS_QInit
    os_core.o(.text) refers to os_core.o(.bss) for OSTCBPrioTbl
    os_core.o(.text) refers to os_core.o(.data) for OSStatRdy
    os_core.o(.text) refers to os_core.o(.constdata) for OSUnMapTbl
    os_flag.o(.text) refers to os_cpu_a.o(.text) for OS_CPU_SR_Save
    os_flag.o(.text) refers to os_core.o(.text) for OS_Sched
    os_flag.o(.text) refers to os_core.o(.data) for OSIntNesting
    os_flag.o(.text) refers to os_core.o(.bss) for OSFlagTbl
    os_mbox.o(.text) refers to os_cpu_a.o(.text) for OS_CPU_SR_Save
    os_mbox.o(.text) refers to os_core.o(.text) for OS_EventWaitListInit
    os_mbox.o(.text) refers to os_core.o(.data) for OSIntNesting
    os_mutex.o(.text) refers to os_cpu_a.o(.text) for OS_CPU_SR_Save
    os_mutex.o(.text) refers to os_core.o(.text) for OS_EventWaitListInit
    os_mutex.o(.text) refers to os_core.o(.data) for OSIntNesting
    os_mutex.o(.text) refers to os_core.o(.bss) for OSTCBPrioTbl
    os_q.o(.text) refers to os_cpu_a.o(.text) for OS_CPU_SR_Save
    os_q.o(.text) refers to os_core.o(.text) for OS_EventWaitListInit
    os_q.o(.text) refers to os_core.o(.data) for OSIntNesting
    os_q.o(.text) refers to os_core.o(.bss) for OSQTbl
    os_sem.o(.text) refers to os_cpu_a.o(.text) for OS_CPU_SR_Save
    os_sem.o(.text) refers to os_core.o(.text) for OS_EventWaitListInit
    os_sem.o(.text) refers to os_core.o(.data) for OSIntNesting
    os_task.o(.text) refers to os_cpu_a.o(.text) for OS_CPU_SR_Save
    os_task.o(.text) refers to os_core.o(.text) for OS_Sched
    os_task.o(.text) refers to os_cpu_c.o(.text) for OSTaskStkInit
    os_task.o(.text) refers to os_flag.o(.text) for OS_FlagUnlink
    os_task.o(.text) refers to os_core.o(.bss) for OSTCBPrioTbl
    os_task.o(.text) refers to os_core.o(.data) for OSTCBCur
    os_time.o(.text) refers to os_cpu_a.o(.text) for OS_CPU_SR_Save
    os_time.o(.text) refers to os_core.o(.text) for OS_Sched
    os_time.o(.text) refers to os_core.o(.data) for OSIntNesting
    os_time.o(.text) refers to os_core.o(.bss) for OSTCBPrioTbl
    os_cpu_a.o(.text) refers to os_core.o(.data) for OSRunning
    os_cpu_a.o(.text) refers to os_cpu_c.o(.text) for OSTaskSwHook
    malloc.o(.text) refers to malloc.o(.data) for mallco_dev
    malloc.o(.data) refers to malloc.o(.text) for mem_init
    malloc.o(.data) refers to malloc.o(.bss) for membase
    exfuns.o(.text) refers to malloc.o(.text) for mymalloc
    exfuns.o(.text) refers to strcpy.o(.text) for strcpy
    exfuns.o(.text) refers to strcmpv7m.o(.text) for strcmp
    exfuns.o(.text) refers to ff.o(.text) for f_getfree
    exfuns.o(.text) refers to exfuns.o(.data) for fs
    exfuns.o(.data) refers to exfuns.o(.conststring) for .conststring
    fattester.o(.text) refers to _printf_percent.o(.ARM.Collect$$_printf_percent$$00000000) for _printf_percent
    fattester.o(.text) refers to _printf_d.o(.ARM.Collect$$_printf_percent$$00000009) for _printf_d
    fattester.o(.text) refers to _printf_dec.o(.text) for _printf_int_dec
    fattester.o(.text) refers to _printf_c.o(.ARM.Collect$$_printf_percent$$00000013) for _printf_c
    fattester.o(.text) refers to _printf_str.o(.text) for _printf_str
    fattester.o(.text) refers to _printf_s.o(.ARM.Collect$$_printf_percent$$00000014) for _printf_s
    fattester.o(.text) refers to _printf_x.o(.ARM.Collect$$_printf_percent$$0000000C) for _printf_x
    fattester.o(.text) refers to _printf_hex_int.o(.text) for _printf_longlong_hex
    fattester.o(.text) refers to ff.o(.text) for f_mount
    fattester.o(.text) refers to __2printf.o(.text) for __2printf
    fattester.o(.text) refers to malloc.o(.text) for mymalloc
    fattester.o(.text) refers to exfuns.o(.data) for fs
    fattester.o(.text) refers to exfuns.o(.bss) for dir
    ff.o(.text) refers to diskio.o(.text) for disk_write
    ff.o(.text) refers to cc936.o(.text) for ff_wtoupper
    ff.o(.text) refers to ff.o(.constdata) for LfnOfs
    ff.o(.text) refers to ff.o(.data) for FatFs
    diskio.o(.text) refers to mmc_sd.o(.text) for SD_Initialize
    diskio.o(.text) refers to flash.o(.text) for SPI_Flash_Init
    diskio.o(.text) refers to malloc.o(.text) for mymalloc
    diskio.o(.text) refers to flash.o(.data) for SPI_FLASH_TYPE
    diskio.o(.text) refers to diskio.o(.data) for FLASH_SECTOR_COUNT
    cc936.o(.text) refers to cc936.o(.constdata) for oem2uni
    ezui_ctrl.o(.text) refers to usart.o(.text) for UART_SendPacked
    ezui_ctrl.o(.text) refers to usart.o(.bss) for Send_Buffer
    lcd_dis.o(.text) refers to usart.o(.text) for UART_SendPacked
    lcd_dis.o(.text) refers to usart.o(.bss) for Send_Buffer
    lcd_dis.o(.text) refers to lcd_dis.o(.data) for X_Witch
    util.o(.text) refers to fflt_clz.o(x$fpl$fflt) for __aeabi_i2f
    util.o(.text) refers to fmul.o(x$fpl$fmul) for __aeabi_fmul
    util.o(.text) refers to faddsub_clz.o(x$fpl$fadd) for __aeabi_fadd
    util.o(.text) refers to f2d.o(x$fpl$f2d) for __aeabi_f2d
    util.o(.text) refers to dmul.o(x$fpl$dmul) for __aeabi_dmul
    util.o(.text) refers to d2f.o(x$fpl$d2f) for __aeabi_d2f
    util.o(.text) refers to rt_memclr_w.o(.text) for __aeabi_memclr4
    util.o(.text) refers to rt_memcpy_w.o(.text) for __aeabi_memcpy4
    lcdopt.o(.text) refers to _printf_percent.o(.ARM.Collect$$_printf_percent$$00000000) for _printf_percent
    lcdopt.o(.text) refers to _printf_d.o(.ARM.Collect$$_printf_percent$$00000009) for _printf_d
    lcdopt.o(.text) refers to _printf_dec.o(.text) for _printf_int_dec
    lcdopt.o(.text) refers to fileopt.o(.text) for fileopt_get_goods_list
    lcdopt.o(.text) refers to feqf.o(x$fpl$feqf) for __aeabi_cfcmpeq
    lcdopt.o(.text) refers to ezui_ctrl.o(.text) for EzUI_StringEdit_SetString
    lcdopt.o(.text) refers to usart.o(.text) for UART_DMA_Tx_Enable
    lcdopt.o(.text) refers to hx711.o(.text) for Weight_QuPi
    lcdopt.o(.text) refers to fflt_clz.o(x$fpl$fflt) for __aeabi_i2f
    lcdopt.o(.text) refers to rt_memclr_w.o(.text) for __aeabi_memclr4
    lcdopt.o(.text) refers to __2sprintf.o(.text) for __2sprintf
    lcdopt.o(.text) refers to strlen.o(.text) for strlen
    lcdopt.o(.text) refers to strcpy.o(.text) for strcpy
    lcdopt.o(.text) refers to strcmpv7m.o(.text) for strcmp
    lcdopt.o(.text) refers to lcdopt.o(.bss) for lcdopt_mgr_str
    lcdopt.o(.text) refers to lcdopt.o(.constdata) for .constdata
    lcdopt.o(.text) refers to usart.o(.data) for USART_RX_STA
    lcdopt.o(.text) refers to rtc.o(.text) for RTC_Get
    lcdopt.o(.text) refers to rtc.o(.bss) for calendar
    lcdopt.o(.text) refers to ch376_api.o(.text) for InitUSB
    lcdopt.o(.text) refers to rc522.o(.text) for ReadCardId
    lcdopt.o(.text) refers to atoi.o(.text) for atoi
    lcdopt.o(.text) refers to f2d.o(x$fpl$f2d) for __aeabi_f2d
    lcdopt.o(.text) refers to fmul.o(x$fpl$fmul) for __aeabi_fmul
    lcdopt.o(.text) refers to lcdopt.o(.data) for opt_str
    lcdopt.o(.data) refers to lcdopt.o(.text) for lcdopt_click_bootui_icon_work
    fileopt.o(.text) refers to _printf_percent.o(.ARM.Collect$$_printf_percent$$00000000) for _printf_percent
    fileopt.o(.text) refers to _printf_s.o(.ARM.Collect$$_printf_percent$$00000014) for _printf_s
    fileopt.o(.text) refers to _printf_str.o(.text) for _printf_str
    fileopt.o(.text) refers to _printf_d.o(.ARM.Collect$$_printf_percent$$00000009) for _printf_d
    fileopt.o(.text) refers to _printf_dec.o(.text) for _printf_int_dec
    fileopt.o(.text) refers to _printf_pad.o(.text) for _printf_pre_padding
    fileopt.o(.text) refers to _printf_f.o(.ARM.Collect$$_printf_percent$$00000003) for _printf_f
    fileopt.o(.text) refers to printf1.o(x$fpl$printf1) for _printf_fp_dec
    fileopt.o(.text) refers to malloc.o(.text) for mymalloc
    fileopt.o(.text) refers to ff.o(.text) for f_open
    fileopt.o(.text) refers to rt_memclr_w.o(.text) for __aeabi_memclr4
    fileopt.o(.text) refers to strtok.o(.text) for strtok
    fileopt.o(.text) refers to strlen.o(.text) for strlen
    fileopt.o(.text) refers to strcmpv7m.o(.text) for strcmp
    fileopt.o(.text) refers to __2sprintf.o(.text) for __2sprintf
    fileopt.o(.text) refers to util.o(.text) for string_to_float
    fileopt.o(.text) refers to rt_memcpy_w.o(.text) for __aeabi_memcpy4
    fileopt.o(.text) refers to fileopt.o(.bss) for cur_parm
    fileopt.o(.text) refers to atoi.o(.text) for atoi
    fileopt.o(.text) refers to faddsub_clz.o(x$fpl$fadd) for __aeabi_fadd
    fileopt.o(.text) refers to f2d.o(x$fpl$f2d) for __aeabi_f2d
    fileopt.o(.text) refers to fmul.o(x$fpl$fmul) for __aeabi_fmul
    fileopt.o(.text) refers to rtc.o(.bss) for calendar
    fileopt.o(.text) refers to strncmp.o(.text) for strncmp
    fileopt.o(.text) refers to strstr.o(.text) for strstr
    fileopt.o(.text) refers to ffix.o(x$fpl$ffix) for __aeabi_f2iz
    fileopt.o(.text) refers to rtc.o(.text) for RTC_Get
    fileopt.o(.text) refers to ch376_api.o(.text) for WriteDataBufToUSB
    fileopt.o(.text) refers to strcpy.o(.text) for strcpy
    ch376_api.o(.text) refers to _printf_percent.o(.ARM.Collect$$_printf_percent$$00000000) for _printf_percent
    ch376_api.o(.text) refers to _printf_s.o(.ARM.Collect$$_printf_percent$$00000014) for _printf_s
    ch376_api.o(.text) refers to _printf_str.o(.text) for _printf_str
    ch376_api.o(.text) refers to file_sys.o(.text) for CH376SecWrite
    ch376_api.o(.text) refers to debug.o(.text) for mStopIfError
    ch376_api.o(.text) refers to delay.o(.text) for delay_ms
    ch376_api.o(.text) refers to rt_memcpy_v6.o(.text) for __aeabi_memcpy
    ch376_api.o(.text) refers to rt_memclr_w.o(.text) for __aeabi_memclr4
    ch376_api.o(.text) refers to ch376_spi.o(.text) for SPI2_Init
    ch376_api.o(.text) refers to rt_memclr.o(.text) for __aeabi_memclr
    ch376_api.o(.text) refers to __2sprintf.o(.text) for __2sprintf
    ch376_api.o(.text) refers to ch376_api.o(.data) for total
    ch376_api.o(.text) refers to ch376_api.o(.bss) for FileDataBuf
    use_no_semi_2.o(.text) refers (Special) to use_no_semi.o(.text) for __use_no_semihosting_swi
    __2printf.o(.text) refers to _printf_char_file.o(.text) for _printf_char_file
    __2printf.o(.text) refers to usart.o(.data) for __stdout
    __2sprintf.o(.text) refers to _printf_char_common.o(.text) for _printf_char_common
    __2sprintf.o(.text) refers to _sputc.o(.text) for _sputc
    noretval__2printf.o(.text) refers to _printf_char_file.o(.text) for _printf_char_file
    noretval__2printf.o(.text) refers to usart.o(.data) for __stdout
    noretval__2sprintf.o(.text) refers to _printf_char_common.o(.text) for _printf_char_common
    noretval__2sprintf.o(.text) refers to _sputc.o(.text) for _sputc
    __printf.o(.text) refers to _printf_percent.o(.ARM.Collect$$_printf_percent$$00000000) for _printf_percent
    _printf_str.o(.text) refers (Special) to _printf_char.o(.text) for _printf_cs_common
    _printf_str.o(.text) refers (Weak) to _printf_pad.o(.text) for _printf_pre_padding
    _printf_str.o(.text) refers (Weak) to _printf_pad.o(.text) for _printf_post_padding
    _printf_dec.o(.text) refers to _printf_intcommon.o(.text) for _printf_int_common
    _printf_hex_ll.o(.text) refers to _printf_intcommon.o(.text) for _printf_int_common
    _printf_hex_ll.o(.text) refers to _printf_hex_ll.o(.constdata) for .constdata
    _printf_hex_int.o(.text) refers to _printf_intcommon.o(.text) for _printf_int_common
    _printf_hex_int.o(.text) refers to _printf_hex_int.o(.constdata) for .constdata
    _printf_hex_int_ll.o(.text) refers to _printf_intcommon.o(.text) for _printf_int_common
    _printf_hex_int_ll.o(.text) refers to _printf_hex_int_ll.o(.constdata) for .constdata
    _printf_hex_ptr.o(.text) refers to _printf_intcommon.o(.text) for _printf_int_common
    _printf_hex_ptr.o(.text) refers to _printf_hex_ptr.o(.constdata) for .constdata
    _printf_hex_int_ptr.o(.text) refers to _printf_intcommon.o(.text) for _printf_int_common
    _printf_hex_int_ptr.o(.text) refers to _printf_hex_int_ptr.o(.constdata) for .constdata
    _printf_hex_ll_ptr.o(.text) refers to _printf_intcommon.o(.text) for _printf_int_common
    _printf_hex_ll_ptr.o(.text) refers to _printf_hex_ll_ptr.o(.constdata) for .constdata
    _printf_hex_int_ll_ptr.o(.text) refers to _printf_intcommon.o(.text) for _printf_int_common
    _printf_hex_int_ll_ptr.o(.text) refers to _printf_hex_int_ll_ptr.o(.constdata) for .constdata
    __printf_flags.o(.text) refers to _printf_percent.o(.ARM.Collect$$_printf_percent$$00000000) for _printf_percent
    __printf_flags.o(.text) refers to __printf_flags.o(.constdata) for .constdata
    __printf_ss.o(.text) refers to _printf_percent.o(.ARM.Collect$$_printf_percent$$00000000) for _printf_percent
    __printf_flags_ss.o(.text) refers to _printf_percent.o(.ARM.Collect$$_printf_percent$$00000000) for _printf_percent
    __printf_flags_ss.o(.text) refers to __printf_flags_ss.o(.constdata) for .constdata
    __printf_wp.o(.text) refers to __printf_wp.o(i._is_digit) for _is_digit
    __printf_wp.o(.text) refers to _printf_percent.o(.ARM.Collect$$_printf_percent$$00000000) for _printf_percent
    __printf_flags_wp.o(.text) refers to __printf_wp.o(i._is_digit) for _is_digit
    __printf_flags_wp.o(.text) refers to _printf_percent.o(.ARM.Collect$$_printf_percent$$00000000) for _printf_percent
    __printf_flags_wp.o(.text) refers to __printf_flags_wp.o(.constdata) for .constdata
    __printf_ss_wp.o(.text) refers to __printf_wp.o(i._is_digit) for _is_digit
    __printf_ss_wp.o(.text) refers to _printf_percent.o(.ARM.Collect$$_printf_percent$$00000000) for _printf_percent
    __printf_flags_ss_wp.o(.text) refers to __printf_wp.o(i._is_digit) for _is_digit
    __printf_flags_ss_wp.o(.text) refers to _printf_percent.o(.ARM.Collect$$_printf_percent$$00000000) for _printf_percent
    __printf_flags_ss_wp.o(.text) refers to __printf_flags_ss_wp.o(.constdata) for .constdata
    _printf_c.o(.ARM.Collect$$_printf_percent$$00000013) refers (Weak) to _printf_char.o(.text) for _printf_char
    _printf_s.o(.ARM.Collect$$_printf_percent$$00000014) refers (Weak) to _printf_char.o(.text) for _printf_string
    _printf_x.o(.ARM.Collect$$_printf_percent$$0000000C) refers (Weak) to _printf_hex_int.o(.text) for _printf_int_hex
    _printf_d.o(.ARM.Collect$$_printf_percent$$00000009) refers (Weak) to _printf_dec.o(.text) for _printf_int_dec
    _printf_f.o(.ARM.Collect$$_printf_percent$$00000003) refers (Weak) to printf1.o(x$fpl$printf1) for _printf_fp_dec
    _printf_percent.o(.ARM.Collect$$_printf_percent$$00000000) refers (Special) to _printf_percent_end.o(.ARM.Collect$$_printf_percent$$00000017) for _printf_percent_end
    atoi.o(.text) refers to rt_errno_addr_intlibspace.o(.text) for __aeabi_errno_addr
    atoi.o(.text) refers to strtol.o(.text) for strtol
    strtok.o(.text) refers to strtok_int.o(.text) for __strtok_internal
    strtok.o(.text) refers to strtok.o(.data) for .data
    rt_memcpy_v6.o(.text) refers to rt_memcpy_w.o(.text) for __aeabi_memcpy4
    rt_memclr.o(.text) refers to rt_memclr_w.o(.text) for _memset_w
    __main.o(!!!main) refers to rtentry.o(.ARM.Collect$$rtentry$$00000000) for __rt_entry
    d2f.o(x$fpl$d2f) refers (Special) to usenofp.o(x$fpl$usenofp) for __I$use$fp
    d2f.o(x$fpl$d2f) refers to fretinf.o(x$fpl$fretinf) for __fpl_fretinf
    d2f.o(x$fpl$d2f) refers to dnaninf.o(x$fpl$dnaninf) for __fpl_dnaninf
    daddsub_clz.o(x$fpl$dadd) refers (Special) to usenofp.o(x$fpl$usenofp) for __I$use$fp
    daddsub_clz.o(x$fpl$dadd) refers to daddsub_clz.o(x$fpl$dsub) for _dsub1
    daddsub_clz.o(x$fpl$dadd) refers to dretinf.o(x$fpl$dretinf) for __fpl_dretinf
    daddsub_clz.o(x$fpl$dadd) refers to dnaninf.o(x$fpl$dnaninf) for __fpl_dnaninf
    daddsub_clz.o(x$fpl$drsb) refers (Special) to usenofp.o(x$fpl$usenofp) for __I$use$fp
    daddsub_clz.o(x$fpl$drsb) refers to daddsub_clz.o(x$fpl$dadd) for _dadd1
    daddsub_clz.o(x$fpl$drsb) refers to daddsub_clz.o(x$fpl$dsub) for _dsub1
    daddsub_clz.o(x$fpl$dsub) refers (Special) to usenofp.o(x$fpl$usenofp) for __I$use$fp
    daddsub_clz.o(x$fpl$dsub) refers to daddsub_clz.o(x$fpl$dadd) for _dadd1
    daddsub_clz.o(x$fpl$dsub) refers to dnaninf.o(x$fpl$dnaninf) for __fpl_dnaninf
    dmul.o(x$fpl$dmul) refers (Special) to usenofp.o(x$fpl$usenofp) for __I$use$fp
    dmul.o(x$fpl$dmul) refers to dretinf.o(x$fpl$dretinf) for __fpl_dretinf
    dmul.o(x$fpl$dmul) refers to dnaninf.o(x$fpl$dnaninf) for __fpl_dnaninf
    f2d.o(x$fpl$f2d) refers (Special) to usenofp.o(x$fpl$usenofp) for __I$use$fp
    f2d.o(x$fpl$f2d) refers to fnaninf.o(x$fpl$fnaninf) for __fpl_fnaninf
    f2d.o(x$fpl$f2d) refers to dretinf.o(x$fpl$dretinf) for __fpl_dretinf
    faddsub_clz.o(x$fpl$fadd) refers (Special) to usenofp.o(x$fpl$usenofp) for __I$use$fp
    faddsub_clz.o(x$fpl$fadd) refers to faddsub_clz.o(x$fpl$fsub) for _fsub1
    faddsub_clz.o(x$fpl$fadd) refers to fretinf.o(x$fpl$fretinf) for __fpl_fretinf
    faddsub_clz.o(x$fpl$fadd) refers to fnaninf.o(x$fpl$fnaninf) for __fpl_fnaninf
    faddsub_clz.o(x$fpl$frsb) refers (Special) to usenofp.o(x$fpl$usenofp) for __I$use$fp
    faddsub_clz.o(x$fpl$frsb) refers to faddsub_clz.o(x$fpl$fadd) for _fadd1
    faddsub_clz.o(x$fpl$frsb) refers to faddsub_clz.o(x$fpl$fsub) for _fsub1
    faddsub_clz.o(x$fpl$fsub) refers (Special) to usenofp.o(x$fpl$usenofp) for __I$use$fp
    faddsub_clz.o(x$fpl$fsub) refers to faddsub_clz.o(x$fpl$fadd) for _fadd1
    faddsub_clz.o(x$fpl$fsub) refers to fnaninf.o(x$fpl$fnaninf) for __fpl_fnaninf
    fdiv.o(x$fpl$frdiv) refers (Special) to usenofp.o(x$fpl$usenofp) for __I$use$fp
    fdiv.o(x$fpl$frdiv) refers to fdiv.o(x$fpl$fdiv) for _fdiv1
    fdiv.o(x$fpl$fdiv) refers (Special) to usenofp.o(x$fpl$usenofp) for __I$use$fp
    fdiv.o(x$fpl$fdiv) refers to fretinf.o(x$fpl$fretinf) for __fpl_fretinf
    fdiv.o(x$fpl$fdiv) refers to fnaninf.o(x$fpl$fnaninf) for __fpl_fnaninf
    feqf.o(x$fpl$feqf) refers (Special) to usenofp.o(x$fpl$usenofp) for __I$use$fp
    feqf.o(x$fpl$feqf) refers to fnaninf.o(x$fpl$fnaninf) for __fpl_fnaninf
    feqf.o(x$fpl$feqf) refers to fcmpi.o(x$fpl$fcmpinf) for __fpl_fcmp_Inf
    ffix.o(x$fpl$ffix) refers (Special) to usenofp.o(x$fpl$usenofp) for __I$use$fp
    ffix.o(x$fpl$ffix) refers to fnaninf.o(x$fpl$fnaninf) for __fpl_fnaninf
    ffix.o(x$fpl$ffixr) refers (Special) to usenofp.o(x$fpl$usenofp) for __I$use$fp
    ffix.o(x$fpl$ffixr) refers to fnaninf.o(x$fpl$fnaninf) for __fpl_fnaninf
    fflt_clz.o(x$fpl$ffltu) refers (Special) to usenofp.o(x$fpl$usenofp) for __I$use$fp
    fflt_clz.o(x$fpl$fflt) refers (Special) to usenofp.o(x$fpl$usenofp) for __I$use$fp
    fflt_clz.o(x$fpl$ffltn) refers (Special) to usenofp.o(x$fpl$usenofp) for __I$use$fp
    fleqf.o(x$fpl$fleqf) refers (Special) to usenofp.o(x$fpl$usenofp) for __I$use$fp
    fleqf.o(x$fpl$fleqf) refers to fnaninf.o(x$fpl$fnaninf) for __fpl_fnaninf
    fleqf.o(x$fpl$fleqf) refers to fcmpi.o(x$fpl$fcmpinf) for __fpl_fcmp_Inf
    fmul.o(x$fpl$fmul) refers (Special) to usenofp.o(x$fpl$usenofp) for __I$use$fp
    fmul.o(x$fpl$fmul) refers to fretinf.o(x$fpl$fretinf) for __fpl_fretinf
    fmul.o(x$fpl$fmul) refers to fnaninf.o(x$fpl$fnaninf) for __fpl_fnaninf
    printf1.o(x$fpl$printf1) refers to _printf_fp_dec.o(.text) for _printf_fp_dec_real
    rtentry.o(.ARM.Collect$$rtentry$$00000000) refers (Special) to rtentry2.o(.ARM.Collect$$rtentry$$0000000A) for __rt_entry_li
    rtentry.o(.ARM.Collect$$rtentry$$00000000) refers (Special) to rtentry2.o(.ARM.Collect$$rtentry$$0000000D) for __rt_entry_main
    rtentry.o(.ARM.Collect$$rtentry$$00000000) refers (Special) to rtentry2.o(.ARM.Collect$$rtentry$$0000000C) for __rt_entry_postli_1
    rtentry.o(.ARM.Collect$$rtentry$$00000000) refers (Special) to rtentry2.o(.ARM.Collect$$rtentry$$00000009) for __rt_entry_postsh_1
    rtentry.o(.ARM.Collect$$rtentry$$00000000) refers (Special) to rtentry2.o(.ARM.Collect$$rtentry$$00000002) for __rt_entry_presh_1
    rtentry.o(.ARM.Collect$$rtentry$$00000000) refers (Special) to rtentry4.o(.ARM.Collect$$rtentry$$00000004) for __rt_entry_sh
    rt_errno_addr.o(.text) refers to rt_errno_addr.o(.bss) for __aeabi_errno_addr_data
    rt_errno_addr_intlibspace.o(.text) refers to libspace.o(.bss) for __libspace_start
    _printf_intcommon.o(.text) refers (Weak) to _printf_pad.o(.text) for _printf_pre_padding
    _printf_intcommon.o(.text) refers (Weak) to _printf_pad.o(.text) for _printf_pre_padding
    _printf_intcommon.o(.text) refers (Weak) to _printf_pad.o(.text) for _printf_post_padding
    _printf_fp_dec.o(.text) refers (Special) to usenofp.o(x$fpl$usenofp) for __I$use$fp
    _printf_fp_dec.o(.text) refers (Special) to lc_numeric_c.o(locale$$code) for _get_lc_numeric
    _printf_fp_dec.o(.text) refers to bigflt0.o(.text) for _btod_etento
    _printf_fp_dec.o(.text) refers to btod.o(CL$$btod_d2e) for _btod_d2e
    _printf_fp_dec.o(.text) refers to btod.o(CL$$btod_ediv) for _btod_ediv
    _printf_fp_dec.o(.text) refers to btod.o(CL$$btod_emul) for _btod_emul
    _printf_fp_dec.o(.text) refers to lludiv10.o(.text) for _ll_udiv10
    _printf_fp_dec.o(.text) refers to fpclassify.o(i.__ARM_fpclassify) for __ARM_fpclassify
    _printf_fp_dec.o(.text) refers to _printf_fp_infnan.o(.text) for _printf_fp_infnan
    _printf_fp_dec.o(.text) refers (Weak) to _printf_pad.o(.text) for _printf_pre_padding
    _printf_fp_dec.o(.text) refers (Weak) to _printf_pad.o(.text) for _printf_pre_padding
    _printf_fp_dec.o(.text) refers to rt_locale_intlibspace.o(.text) for __rt_locale
    _printf_fp_dec.o(.text) refers (Weak) to _printf_pad.o(.text) for _printf_post_padding
    _printf_char_common.o(.text) refers to __printf_wp.o(.text) for __printf
    _printf_char.o(.text) refers (Weak) to _printf_str.o(.text) for _printf_str
    _printf_char_file.o(.text) refers to _printf_char_common.o(.text) for _printf_char_common
    _printf_char_file.o(.text) refers to ferror.o(.text) for ferror
    _printf_char_file.o(.text) refers to usart.o(.text) for fputc
    strtol.o(.text) refers to rt_ctype_table.o(.text) for __rt_ctype_table
    strtol.o(.text) refers to _strtoul.o(.text) for _strtoul
    strtol.o(.text) refers to rt_errno_addr_intlibspace.o(.text) for __aeabi_errno_addr
    strtok_int.o(.text) refers to strspn.o(.text) for strspn
    strtok_int.o(.text) refers to strcspn.o(.text) for strcspn
    dnaninf.o(x$fpl$dnaninf) refers (Special) to usenofp.o(x$fpl$usenofp) for __I$use$fp
    dretinf.o(x$fpl$dretinf) refers (Special) to usenofp.o(x$fpl$usenofp) for __I$use$fp
    fcmpi.o(x$fpl$fcmpinf) refers (Special) to usenofp.o(x$fpl$usenofp) for __I$use$fp
    fnaninf.o(x$fpl$fnaninf) refers (Special) to usenofp.o(x$fpl$usenofp) for __I$use$fp
    fretinf.o(x$fpl$fretinf) refers (Special) to usenofp.o(x$fpl$usenofp) for __I$use$fp
    libspace.o(.text) refers to libspace.o(.bss) for __libspace_start
    rtentry2.o(.ARM.Collect$$rtentry$$00000008) refers to boardinit2.o(.text) for _platform_post_stackheap_init
    rtentry2.o(.ARM.Collect$$rtentry$$0000000A) refers to libinit.o(.ARM.Collect$$libinit$$00000000) for __rt_lib_init
    rtentry2.o(.ARM.Collect$$rtentry$$0000000B) refers to boardinit3.o(.text) for _platform_post_lib_init
    rtentry2.o(.ARM.Collect$$rtentry$$0000000D) refers to main.o(.text) for main
    rtentry2.o(.ARM.Collect$$rtentry$$0000000D) refers to exit.o(.text) for exit
    rtentry2.o(.ARM.exidx) refers to rtentry2.o(.ARM.Collect$$rtentry$$00000001) for .ARM.Collect$$rtentry$$00000001
    rtentry2.o(.ARM.exidx) refers to rtentry2.o(.ARM.Collect$$rtentry$$00000008) for .ARM.Collect$$rtentry$$00000008
    rtentry2.o(.ARM.exidx) refers to rtentry2.o(.ARM.Collect$$rtentry$$0000000A) for .ARM.Collect$$rtentry$$0000000A
    rtentry2.o(.ARM.exidx) refers to rtentry2.o(.ARM.Collect$$rtentry$$0000000B) for .ARM.Collect$$rtentry$$0000000B
    rtentry2.o(.ARM.exidx) refers to rtentry2.o(.ARM.Collect$$rtentry$$0000000D) for .ARM.Collect$$rtentry$$0000000D
    rtentry4.o(.ARM.Collect$$rtentry$$00000004) refers to sys_stackheap_outer.o(.text) for __user_setup_stackheap
    rtentry4.o(.ARM.exidx) refers to rtentry4.o(.ARM.Collect$$rtentry$$00000004) for .ARM.Collect$$rtentry$$00000004
    rt_ctype_table.o(.text) refers to rt_locale_intlibspace.o(.text) for __rt_locale
    rt_ctype_table.o(.text) refers to lc_ctype_c.o(locale$$code) for _get_lc_ctype
    rt_locale.o(.text) refers to rt_locale.o(.bss) for __rt_locale_data
    rt_locale_intlibspace.o(.text) refers to libspace.o(.bss) for __libspace_start
    _printf_fp_infnan.o(.text) refers (Weak) to _printf_pad.o(.text) for _printf_pre_padding
    _printf_fp_infnan.o(.text) refers (Weak) to _printf_pad.o(.text) for _printf_post_padding
    _strtoul.o(.text) refers to _chval.o(.text) for _chval
    _strtoul.o(.text) refers to rt_errno_addr_intlibspace.o(.text) for __aeabi_errno_addr
    bigflt0.o(.text) refers (Special) to usenofp.o(x$fpl$usenofp) for __I$use$fp
    bigflt0.o(.text) refers to btod.o(CL$$btod_emul) for _btod_emul
    bigflt0.o(.text) refers to btod.o(CL$$btod_ediv) for _btod_ediv
    bigflt0.o(.text) refers to bigflt0.o(.constdata) for .constdata
    bigflt0.o(.constdata) refers (Special) to usenofp.o(x$fpl$usenofp) for __I$use$fp
    btod.o(CL$$btod_d2e) refers (Special) to usenofp.o(x$fpl$usenofp) for __I$use$fp
    btod.o(CL$$btod_d2e) refers to btod.o(CL$$btod_d2e_norm_op1) for _d2e_norm_op1
    btod.o(CL$$btod_d2e_norm_op1) refers (Special) to usenofp.o(x$fpl$usenofp) for __I$use$fp
    btod.o(CL$$btod_d2e_norm_op1) refers to btod.o(CL$$btod_d2e_denorm_low) for _d2e_denorm_low
    btod.o(CL$$btod_d2e_denorm_low) refers (Special) to usenofp.o(x$fpl$usenofp) for __I$use$fp
    btod.o(CL$$btod_emul) refers (Special) to usenofp.o(x$fpl$usenofp) for __I$use$fp
    btod.o(CL$$btod_emul) refers to btod.o(CL$$btod_mult_common) for __btod_mult_common
    btod.o(CL$$btod_emul) refers to btod.o(CL$$btod_e2e) for _e2e
    btod.o(CL$$btod_ediv) refers (Special) to usenofp.o(x$fpl$usenofp) for __I$use$fp
    btod.o(CL$$btod_ediv) refers to btod.o(CL$$btod_div_common) for __btod_div_common
    btod.o(CL$$btod_ediv) refers to btod.o(CL$$btod_e2e) for _e2e
    btod.o(CL$$btod_emuld) refers (Special) to usenofp.o(x$fpl$usenofp) for __I$use$fp
    btod.o(CL$$btod_emuld) refers to btod.o(CL$$btod_mult_common) for __btod_mult_common
    btod.o(CL$$btod_emuld) refers to btod.o(CL$$btod_e2d) for _e2d
    btod.o(CL$$btod_edivd) refers (Special) to usenofp.o(x$fpl$usenofp) for __I$use$fp
    btod.o(CL$$btod_edivd) refers to btod.o(CL$$btod_div_common) for __btod_div_common
    btod.o(CL$$btod_edivd) refers to btod.o(CL$$btod_e2d) for _e2d
    btod.o(CL$$btod_e2e) refers (Special) to usenofp.o(x$fpl$usenofp) for __I$use$fp
    btod.o(CL$$btod_e2d) refers (Special) to usenofp.o(x$fpl$usenofp) for __I$use$fp
    btod.o(CL$$btod_e2d) refers to btod.o(CL$$btod_e2e) for _e2e
    btod.o(CL$$btod_mult_common) refers (Special) to usenofp.o(x$fpl$usenofp) for __I$use$fp
    btod.o(CL$$btod_div_common) refers (Special) to usenofp.o(x$fpl$usenofp) for __I$use$fp
    lc_numeric_c.o(locale$$data) refers (Special) to libinit2.o(.ARM.Collect$$libinit$$00000012) for __rt_lib_init_lc_numeric_2
    lc_numeric_c.o(locale$$code) refers (Special) to libinit2.o(.ARM.Collect$$libinit$$00000012) for __rt_lib_init_lc_numeric_2
    lc_numeric_c.o(locale$$code) refers to strcmpv7m.o(.text) for strcmp
    lc_numeric_c.o(locale$$code) refers to lc_numeric_c.o(locale$$data) for __lcnum_c_name
    istatus.o(x$fpl$ieeestatus) refers (Special) to usenofp.o(x$fpl$usenofp) for __I$use$fp
    fpclassify.o(i.__ARM_fpclassify) refers (Special) to usenofp.o(x$fpl$usenofp) for __I$use$fp
    sys_stackheap_outer.o(.text) refers to libspace.o(.text) for __user_perproc_libspace
    sys_stackheap_outer.o(.text) refers to startup_stm32f10x_hd.o(.text) for __user_initial_stackheap
    lc_ctype_c.o(locale$$data) refers (Special) to libinit2.o(.ARM.Collect$$libinit$$0000000E) for __rt_lib_init_lc_ctype_2
    lc_ctype_c.o(locale$$code) refers (Special) to libinit2.o(.ARM.Collect$$libinit$$0000000E) for __rt_lib_init_lc_ctype_2
    lc_ctype_c.o(locale$$code) refers to strcmpv7m.o(.text) for strcmp
    lc_ctype_c.o(locale$$code) refers to lc_ctype_c.o(locale$$data) for __lcctype_c_name
    exit.o(.text) refers to rtexit.o(.ARM.Collect$$rtexit$$00000000) for __rt_exit
    libinit.o(.ARM.Collect$$libinit$$00000000) refers (Special) to libinit2.o(.ARM.Collect$$libinit$$0000002A) for __rt_lib_init_alloca_1
    libinit.o(.ARM.Collect$$libinit$$00000000) refers (Special) to libinit2.o(.ARM.Collect$$libinit$$00000028) for __rt_lib_init_argv_1
    libinit.o(.ARM.Collect$$libinit$$00000000) refers (Special) to libinit2.o(.ARM.Collect$$libinit$$00000017) for __rt_lib_init_atexit_1
    libinit.o(.ARM.Collect$$libinit$$00000000) refers (Special) to libinit2.o(.ARM.Collect$$libinit$$0000001D) for __rt_lib_init_clock_1
    libinit.o(.ARM.Collect$$libinit$$00000000) refers (Special) to libinit2.o(.ARM.Collect$$libinit$$0000002E) for __rt_lib_init_cpp_1
    libinit.o(.ARM.Collect$$libinit$$00000000) refers (Special) to libinit2.o(.ARM.Collect$$libinit$$0000002C) for __rt_lib_init_exceptions_1
    libinit.o(.ARM.Collect$$libinit$$00000000) refers (Special) to libinit2.o(.ARM.Collect$$libinit$$0000001B) for __rt_lib_init_fp_trap_1
    libinit.o(.ARM.Collect$$libinit$$00000000) refers (Special) to libinit2.o(.ARM.Collect$$libinit$$0000001F) for __rt_lib_init_getenv_1
    libinit.o(.ARM.Collect$$libinit$$00000000) refers (Special) to libinit2.o(.ARM.Collect$$libinit$$00000006) for __rt_lib_init_heap_1
    libinit.o(.ARM.Collect$$libinit$$00000000) refers (Special) to libinit2.o(.ARM.Collect$$libinit$$0000000D) for __rt_lib_init_lc_collate_1
    libinit.o(.ARM.Collect$$libinit$$00000000) refers (Special) to libinit2.o(.ARM.Collect$$libinit$$0000000F) for __rt_lib_init_lc_ctype_1
    libinit.o(.ARM.Collect$$libinit$$00000000) refers (Special) to libinit2.o(.ARM.Collect$$libinit$$00000011) for __rt_lib_init_lc_monetary_1
    libinit.o(.ARM.Collect$$libinit$$00000000) refers (Special) to libinit2.o(.ARM.Collect$$libinit$$00000013) for __rt_lib_init_lc_numeric_1
    libinit.o(.ARM.Collect$$libinit$$00000000) refers (Special) to libinit2.o(.ARM.Collect$$libinit$$00000015) for __rt_lib_init_lc_time_1
    libinit.o(.ARM.Collect$$libinit$$00000000) refers (Special) to libinit2.o(.ARM.Collect$$libinit$$0000000A) for __rt_lib_init_rand_1
    libinit.o(.ARM.Collect$$libinit$$00000000) refers (Special) to libinit2.o(.ARM.Collect$$libinit$$0000002F) for __rt_lib_init_return
    libinit.o(.ARM.Collect$$libinit$$00000000) refers (Special) to libinit2.o(.ARM.Collect$$libinit$$00000019) for __rt_lib_init_signal_1
    libinit.o(.ARM.Collect$$libinit$$00000000) refers (Special) to libinit2.o(.ARM.Collect$$libinit$$00000021) for __rt_lib_init_stdio_1
    libinit.o(.ARM.Collect$$libinit$$00000000) refers (Special) to libinit2.o(.ARM.Collect$$libinit$$00000008) for __rt_lib_init_user_alloc_1
    libinit.o(.ARM.Collect$$libinit$$00000000) refers to fpinit.o(x$fpl$fpinit) for _fp_init
    libinit2.o(.ARM.Collect$$libinit$$0000000B) refers (Weak) to rt_locale_intlibspace.o(.text) for __rt_locale
    libinit2.o(.ARM.Collect$$libinit$$0000000C) refers to libinit2.o(.ARM.Collect$$libinit$$0000000B) for .ARM.Collect$$libinit$$0000000B
    libinit2.o(.ARM.Collect$$libinit$$0000000E) refers to libinit2.o(.ARM.Collect$$libinit$$0000000B) for .ARM.Collect$$libinit$$0000000B
    libinit2.o(.ARM.Collect$$libinit$$0000000E) refers (Weak) to lc_ctype_c.o(locale$$code) for _get_lc_ctype
    libinit2.o(.ARM.Collect$$libinit$$00000010) refers to libinit2.o(.ARM.Collect$$libinit$$0000000B) for .ARM.Collect$$libinit$$0000000B
    libinit2.o(.ARM.Collect$$libinit$$00000012) refers to libinit2.o(.ARM.Collect$$libinit$$0000000B) for .ARM.Collect$$libinit$$0000000B
    libinit2.o(.ARM.Collect$$libinit$$00000012) refers (Weak) to lc_numeric_c.o(locale$$code) for _get_lc_numeric
    libinit2.o(.ARM.Collect$$libinit$$00000014) refers to libinit2.o(.ARM.Collect$$libinit$$0000000B) for .ARM.Collect$$libinit$$0000000B
    libinit2.o(.ARM.Collect$$libinit$$00000022) refers to argv_veneer.o(.emb_text) for __ARM_argv_veneer
    libinit2.o(.ARM.Collect$$libinit$$00000023) refers to argv_veneer.o(.emb_text) for __ARM_argv_veneer
    rtexit.o(.ARM.Collect$$rtexit$$00000000) refers (Special) to rtexit2.o(.ARM.Collect$$rtexit$$00000004) for __rt_exit_exit
    rtexit.o(.ARM.Collect$$rtexit$$00000000) refers (Special) to rtexit2.o(.ARM.Collect$$rtexit$$00000003) for __rt_exit_ls
    rtexit.o(.ARM.Collect$$rtexit$$00000000) refers (Special) to rtexit2.o(.ARM.Collect$$rtexit$$00000002) for __rt_exit_prels_1
    rtexit.o(.ARM.exidx) refers (Special) to rtexit2.o(.ARM.Collect$$rtexit$$00000004) for __rt_exit_exit
    rtexit.o(.ARM.exidx) refers (Special) to rtexit2.o(.ARM.Collect$$rtexit$$00000003) for __rt_exit_ls
    rtexit.o(.ARM.exidx) refers (Special) to rtexit2.o(.ARM.Collect$$rtexit$$00000002) for __rt_exit_prels_1
    rtexit.o(.ARM.exidx) refers to rtexit.o(.ARM.Collect$$rtexit$$00000000) for .ARM.Collect$$rtexit$$00000000
    argv_veneer.o(.emb_text) refers to no_argv.o(.text) for __ARM_get_argv
    fpinit.o(x$fpl$fpinit) refers to rt_fp_status_addr_intlibspace.o(.text) for __rt_fp_status_addr
    rtexit2.o(.ARM.Collect$$rtexit$$00000003) refers to libshutdown.o(.ARM.Collect$$libshutdown$$00000000) for __rt_lib_shutdown
    rtexit2.o(.ARM.Collect$$rtexit$$00000004) refers to usart.o(.text) for _sys_exit
    rtexit2.o(.ARM.exidx) refers to rtexit2.o(.ARM.Collect$$rtexit$$00000001) for .ARM.Collect$$rtexit$$00000001
    rtexit2.o(.ARM.exidx) refers to rtexit2.o(.ARM.Collect$$rtexit$$00000003) for .ARM.Collect$$rtexit$$00000003
    rtexit2.o(.ARM.exidx) refers to rtexit2.o(.ARM.Collect$$rtexit$$00000004) for .ARM.Collect$$rtexit$$00000004
    rt_fp_status_addr.o(.text) refers to rt_fp_status_addr.o(.bss) for __rt_fp_status_addr_data
    rt_fp_status_addr_intlibspace.o(.text) refers to libspace.o(.bss) for __libspace_start
    _get_argv_nomalloc.o(.text) refers (Special) to hrguard.o(.text) for __heap_region$guard
    _get_argv_nomalloc.o(.text) refers to defsig_rtmem_outer.o(.text) for __rt_SIGRTMEM
    _get_argv_nomalloc.o(.text) refers to sys_command.o(.text) for _sys_command_string
    sys_command.o(.text) refers (Special) to use_no_semi.o(.text) for __I$use$semihosting
    sys_command.o(.text) refers (Special) to indicate_semi.o(.text) for __semihosting_library_function
    defsig_rtmem_outer.o(.text) refers to defsig_rtmem_inner.o(.text) for __rt_SIGRTMEM_inner
    defsig_rtmem_outer.o(.text) refers to defsig_exit.o(.text) for __sig_exit
    defsig_rtmem_formal.o(.text) refers to rt_raise.o(.text) for __rt_raise
    libshutdown.o(.ARM.Collect$$libshutdown$$00000000) refers (Special) to libshutdown2.o(.ARM.Collect$$libshutdown$$00000006) for __rt_lib_shutdown_fp_trap_1
    libshutdown.o(.ARM.Collect$$libshutdown$$00000000) refers (Special) to libshutdown2.o(.ARM.Collect$$libshutdown$$0000000E) for __rt_lib_shutdown_heap_1
    libshutdown.o(.ARM.Collect$$libshutdown$$00000000) refers (Special) to libshutdown2.o(.ARM.Collect$$libshutdown$$0000000F) for __rt_lib_shutdown_return
    libshutdown.o(.ARM.Collect$$libshutdown$$00000000) refers (Special) to libshutdown2.o(.ARM.Collect$$libshutdown$$00000009) for __rt_lib_shutdown_signal_1
    libshutdown.o(.ARM.Collect$$libshutdown$$00000000) refers (Special) to libshutdown2.o(.ARM.Collect$$libshutdown$$00000003) for __rt_lib_shutdown_stdio_1
    libshutdown.o(.ARM.Collect$$libshutdown$$00000000) refers (Special) to libshutdown2.o(.ARM.Collect$$libshutdown$$0000000B) for __rt_lib_shutdown_user_alloc_1
    rt_raise.o(.text) refers to __raise.o(.text) for __raise
    rt_raise.o(.text) refers to usart.o(.text) for _sys_exit
    defsig_exit.o(.text) refers to usart.o(.text) for _sys_exit
    defsig_rtmem_inner.o(.text) refers to defsig_general.o(.text) for __default_signal_display
    __raise.o(.text) refers to defsig.o(CL$$defsig) for __default_signal_handler
    defsig_general.o(.text) refers to sys_wrch.o(.text) for _ttywrch
    sys_wrch.o(.text) refers (Special) to use_no_semi.o(.text) for __I$use$semihosting
    sys_wrch.o(.text) refers (Special) to indicate_semi.o(.text) for __semihosting_library_function
    defsig.o(CL$$defsig) refers to defsig_rtmem_inner.o(.text) for __rt_SIGRTMEM_inner
    defsig_abrt_inner.o(.text) refers to defsig_general.o(.text) for __default_signal_display
    defsig_fpe_inner.o(.text) refers to defsig_general.o(.text) for __default_signal_display
    defsig_rtred_inner.o(.text) refers to defsig_general.o(.text) for __default_signal_display
    defsig_stak_inner.o(.text) refers to defsig_general.o(.text) for __default_signal_display
    defsig_pvfn_inner.o(.text) refers to defsig_general.o(.text) for __default_signal_display
    defsig_cppl_inner.o(.text) refers to defsig_general.o(.text) for __default_signal_display
    defsig_segv_inner.o(.text) refers to defsig_general.o(.text) for __default_signal_display
    defsig_other.o(.text) refers to defsig_general.o(.text) for __default_signal_display


==============================================================================

Removing Unused input sections from the image.

    Removing main.o(.data), (4 bytes).
    Removing core_cm3.o(.emb_text), (32 bytes).
    Removing stm32f10x_flash.o(.text), (1464 bytes).
    Removing os_mbox.o(.text), (972 bytes).
    Removing os_mutex.o(.text), (1588 bytes).
    Removing os_sem.o(.text), (908 bytes).
    Removing os_cpu_c.o(.data), (4 bytes).
    Removing malloc.o(.constdata), (12 bytes).
    Removing exfuns.o(.bss), (68 bytes).
    Removing fattester.o(.text), (1720 bytes).
    Removing lcd_dis.o(.text), (924 bytes).
    Removing lcd_dis.o(.data), (8 bytes).
    Removing fileopt.o(.data), (4 bytes).

13 unused section(s) (total 7708 bytes) removed from the image.

==============================================================================

Image Symbol Table

    Local Symbols

    Symbol Name                              Value     Ov Type        Size  Object(Section)

    ../../angel/boardlib.s                   0x00000000   Number         0  boardinit3.o ABSOLUTE
    ../../angel/boardlib.s                   0x00000000   Number         0  boardinit2.o ABSOLUTE
    ../../angel/boardlib.s                   0x00000000   Number         0  boardinit1.o ABSOLUTE
    ../../angel/boardlib.s                   0x00000000   Number         0  boardshut.o ABSOLUTE
    ../../angel/dczerorl2.s                  0x00000000   Number         0  __dczerorl2.o ABSOLUTE
    ../../angel/handlers.s                   0x00000000   Number         0  __scatter_zi.o ABSOLUTE
    ../../angel/kernel.s                     0x00000000   Number         0  rtexit.o ABSOLUTE
    ../../angel/kernel.s                     0x00000000   Number         0  rtentry.o ABSOLUTE
    ../../angel/kernel.s                     0x00000000   Number         0  rtexit2.o ABSOLUTE
    ../../angel/kernel.s                     0x00000000   Number         0  rtentry4.o ABSOLUTE
    ../../angel/kernel.s                     0x00000000   Number         0  rtentry2.o ABSOLUTE
    ../../angel/rt.s                         0x00000000   Number         0  rt_raise.o ABSOLUTE
    ../../angel/rt.s                         0x00000000   Number         0  rt_errno_addr.o ABSOLUTE
    ../../angel/rt.s                         0x00000000   Number         0  rt_fp_status_addr_intlibspace.o ABSOLUTE
    ../../angel/rt.s                         0x00000000   Number         0  rt_errno_addr_intlibspace.o ABSOLUTE
    ../../angel/rt.s                         0x00000000   Number         0  rt_locale_intlibspace.o ABSOLUTE
    ../../angel/rt.s                         0x00000000   Number         0  rt_fp_status_addr.o ABSOLUTE
    ../../angel/rt.s                         0x00000000   Number         0  rt_ctype_table.o ABSOLUTE
    ../../angel/rt.s                         0x00000000   Number         0  rt_locale.o ABSOLUTE
    ../../angel/scatter.s                    0x00000000   Number         0  __scatter.o ABSOLUTE
    ../../angel/startup.s                    0x00000000   Number         0  __main.o ABSOLUTE
    ../../angel/sys.s                        0x00000000   Number         0  use_no_semi_2.o ABSOLUTE
    ../../angel/sys.s                        0x00000000   Number         0  libspace.o ABSOLUTE
    ../../angel/sys.s                        0x00000000   Number         0  use_no_semi.o ABSOLUTE
    ../../angel/sys.s                        0x00000000   Number         0  sys_stackheap_outer.o ABSOLUTE
    ../../angel/sys.s                        0x00000000   Number         0  indicate_semi.o ABSOLUTE
    ../../angel/sysapp.c                     0x00000000   Number         0  sys_wrch.o ABSOLUTE
    ../../angel/sysapp.c                     0x00000000   Number         0  sys_command.o ABSOLUTE
    ../../armsys.c                           0x00000000   Number         0  _get_argv_nomalloc.o ABSOLUTE
    ../../armsys.c                           0x00000000   Number         0  no_argv.o ABSOLUTE
    ../../armsys.c                           0x00000000   Number         0  argv_veneer.o ABSOLUTE
    ../../armsys.c                           0x00000000   Number         0  argv_veneer.o ABSOLUTE
    ../../bigflt.c                           0x00000000   Number         0  bigflt0.o ABSOLUTE
    ../../btod.s                             0x00000000   Number         0  btod.o ABSOLUTE
    ../../d2f.s                              0x00000000   Number         0  d2f.o ABSOLUTE
    ../../daddsub.s                          0x00000000   Number         0  daddsub_clz.o ABSOLUTE
    ../../dmul.s                             0x00000000   Number         0  dmul.o ABSOLUTE
    ../../dnaninf.s                          0x00000000   Number         0  dnaninf.o ABSOLUTE
    ../../dretinf.s                          0x00000000   Number         0  dretinf.o ABSOLUTE
    ../../f2d.s                              0x00000000   Number         0  f2d.o ABSOLUTE
    ../../faddsub.s                          0x00000000   Number         0  faddsub_clz.o ABSOLUTE
    ../../fcmpi.s                            0x00000000   Number         0  fcmpi.o ABSOLUTE
    ../../fdiv.s                             0x00000000   Number         0  fdiv.o ABSOLUTE
    ../../feqf.s                             0x00000000   Number         0  feqf.o ABSOLUTE
    ../../ffix.s                             0x00000000   Number         0  ffix.o ABSOLUTE
    ../../fflt.s                             0x00000000   Number         0  fflt_clz.o ABSOLUTE
    ../../fleqf.s                            0x00000000   Number         0  fleqf.o ABSOLUTE
    ../../fmul.s                             0x00000000   Number         0  fmul.o ABSOLUTE
    ../../fnaninf.s                          0x00000000   Number         0  fnaninf.o ABSOLUTE
    ../../fpclassify.c                       0x00000000   Number         0  fpclassify.o ABSOLUTE
    ../../fpinit.s                           0x00000000   Number         0  fpinit.o ABSOLUTE
    ../../fretinf.s                          0x00000000   Number         0  fretinf.o ABSOLUTE
    ../../heapalloc.c                        0x00000000   Number         0  hrguard.o ABSOLUTE
    ../../heapaux.c                          0x00000000   Number         0  heapauxi.o ABSOLUTE
    ../../istatus.s                          0x00000000   Number         0  istatus.o ABSOLUTE
    ../../libinit.s                          0x00000000   Number         0  libshutdown.o ABSOLUTE
    ../../libinit.s                          0x00000000   Number         0  libinit2.o ABSOLUTE
    ../../libinit.s                          0x00000000   Number         0  libshutdown2.o ABSOLUTE
    ../../libinit.s                          0x00000000   Number         0  libinit.o ABSOLUTE
    ../../locale.s                           0x00000000   Number         0  lc_numeric_c.o ABSOLUTE
    ../../locale.s                           0x00000000   Number         0  lc_ctype_c.o ABSOLUTE
    ../../longlong.s                         0x00000000   Number         0  lludiv10.o ABSOLUTE
    ../../memcpset.s                         0x00000000   Number         0  rt_memclr_w.o ABSOLUTE
    ../../memcpset.s                         0x00000000   Number         0  strcmpv7m.o ABSOLUTE
    ../../memcpset.s                         0x00000000   Number         0  rt_memcpy_w.o ABSOLUTE
    ../../memcpset.s                         0x00000000   Number         0  rt_memcpy_v6.o ABSOLUTE
    ../../memcpset.s                         0x00000000   Number         0  rt_memclr.o ABSOLUTE
    ../../misc.s                             0x00000000   Number         0  printf_stubs.o ABSOLUTE
    ../../printf.c                           0x00000000   Number         0  _printf_hex_int_ll_ptr.o ABSOLUTE
    ../../printf.c                           0x00000000   Number         0  __printf_flags.o ABSOLUTE
    ../../printf.c                           0x00000000   Number         0  __2printf.o ABSOLUTE
    ../../printf.c                           0x00000000   Number         0  __2sprintf.o ABSOLUTE
    ../../printf.c                           0x00000000   Number         0  __printf_flags_ss_wp.o ABSOLUTE
    ../../printf.c                           0x00000000   Number         0  noretval__2printf.o ABSOLUTE
    ../../printf.c                           0x00000000   Number         0  __printf_ss.o ABSOLUTE
    ../../printf.c                           0x00000000   Number         0  noretval__2sprintf.o ABSOLUTE
    ../../printf.c                           0x00000000   Number         0  __printf.o ABSOLUTE
    ../../printf.c                           0x00000000   Number         0  _printf_pad.o ABSOLUTE
    ../../printf.c                           0x00000000   Number         0  _printf_hex_ll.o ABSOLUTE
    ../../printf.c                           0x00000000   Number         0  _printf_str.o ABSOLUTE
    ../../printf.c                           0x00000000   Number         0  __printf_flags_ss.o ABSOLUTE
    ../../printf.c                           0x00000000   Number         0  __printf_wp.o ABSOLUTE
    ../../printf.c                           0x00000000   Number         0  _printf_dec.o ABSOLUTE
    ../../printf.c                           0x00000000   Number         0  _printf_fp_infnan.o ABSOLUTE
    ../../printf.c                           0x00000000   Number         0  __printf_ss_wp.o ABSOLUTE
    ../../printf.c                           0x00000000   Number         0  __printf_flags_wp.o ABSOLUTE
    ../../printf.c                           0x00000000   Number         0  _printf_hex_int.o ABSOLUTE
    ../../printf.c                           0x00000000   Number         0  _printf_hex_int_ll.o ABSOLUTE
    ../../printf.c                           0x00000000   Number         0  _printf_hex_ptr.o ABSOLUTE
    ../../printf.c                           0x00000000   Number         0  _printf_hex_int_ptr.o ABSOLUTE
    ../../printf.c                           0x00000000   Number         0  _printf_intcommon.o ABSOLUTE
    ../../printf.c                           0x00000000   Number         0  _printf_char_common.o ABSOLUTE
    ../../printf.c                           0x00000000   Number         0  _sputc.o ABSOLUTE
    ../../printf.c                           0x00000000   Number         0  _printf_char.o ABSOLUTE
    ../../printf.c                           0x00000000   Number         0  _printf_char_file.o ABSOLUTE
    ../../printf.c                           0x00000000   Number         0  _printf_fp_dec.o ABSOLUTE
    ../../printf.c                           0x00000000   Number         0  _printf_hex_ll_ptr.o ABSOLUTE
    ../../printf.c                           0x00000000   Number         0  __printf_nopercent.o ABSOLUTE
    ../../printf1.s                          0x00000000   Number         0  printf1.o ABSOLUTE
    ../../printf_percent.s                   0x00000000   Number         0  _printf_percent_end.o ABSOLUTE
    ../../printf_percent.s                   0x00000000   Number         0  _printf_s.o ABSOLUTE
    ../../printf_percent.s                   0x00000000   Number         0  _printf_c.o ABSOLUTE
    ../../printf_percent.s                   0x00000000   Number         0  _printf_x.o ABSOLUTE
    ../../printf_percent.s                   0x00000000   Number         0  _printf_percent.o ABSOLUTE
    ../../printf_percent.s                   0x00000000   Number         0  _printf_f.o ABSOLUTE
    ../../printf_percent.s                   0x00000000   Number         0  _printf_d.o ABSOLUTE
    ../../scanf.c                            0x00000000   Number         0  strtol.o ABSOLUTE
    ../../scanf.c                            0x00000000   Number         0  _chval.o ABSOLUTE
    ../../scanf.c                            0x00000000   Number         0  atoi.o ABSOLUTE
    ../../scanf.c                            0x00000000   Number         0  _strtoul.o ABSOLUTE
    ../../signal.c                           0x00000000   Number         0  defsig_rtred_inner.o ABSOLUTE
    ../../signal.c                           0x00000000   Number         0  defsig_rtmem_formal.o ABSOLUTE
    ../../signal.c                           0x00000000   Number         0  defsig_abrt_inner.o ABSOLUTE
    ../../signal.c                           0x00000000   Number         0  defsig_stak_inner.o ABSOLUTE
    ../../signal.c                           0x00000000   Number         0  defsig_other.o ABSOLUTE
    ../../signal.c                           0x00000000   Number         0  defsig_segv_inner.o ABSOLUTE
    ../../signal.c                           0x00000000   Number         0  defsig_cppl_inner.o ABSOLUTE
    ../../signal.c                           0x00000000   Number         0  defsig_pvfn_inner.o ABSOLUTE
    ../../signal.c                           0x00000000   Number         0  __raise.o ABSOLUTE
    ../../signal.c                           0x00000000   Number         0  defsig_exit.o ABSOLUTE
    ../../signal.c                           0x00000000   Number         0  defsig_rtmem_inner.o ABSOLUTE
    ../../signal.c                           0x00000000   Number         0  defsig_rtmem_outer.o ABSOLUTE
    ../../signal.c                           0x00000000   Number         0  defsig_general.o ABSOLUTE
    ../../signal.c                           0x00000000   Number         0  defsig_fpe_inner.o ABSOLUTE
    ../../signal.s                           0x00000000   Number         0  defsig.o ABSOLUTE
    ../../stdio.c                            0x00000000   Number         0  ferror.o ABSOLUTE
    ../../stdio.c                            0x00000000   Number         0  ferror_locked.o ABSOLUTE
    ../../stdlib.c                           0x00000000   Number         0  exit.o ABSOLUTE
    ../../string.c                           0x00000000   Number         0  strstr.o ABSOLUTE
    ../../string.c                           0x00000000   Number         0  strcat.o ABSOLUTE
    ../../string.c                           0x00000000   Number         0  strncmp.o ABSOLUTE
    ../../string.c                           0x00000000   Number         0  strtok.o ABSOLUTE
    ../../string.c                           0x00000000   Number         0  strlen.o ABSOLUTE
    ../../string.c                           0x00000000   Number         0  strtok_int.o ABSOLUTE
    ../../string.c                           0x00000000   Number         0  strcspn.o ABSOLUTE
    ../../string.c                           0x00000000   Number         0  strcpy.o ABSOLUTE
    ../../string.c                           0x00000000   Number         0  strspn.o ABSOLUTE
    ../../usenofp.s                          0x00000000   Number         0  usenofp.o ABSOLUTE
    ..\APP\CH376_api.c                       0x00000000   Number         0  ch376_api.o ABSOLUTE
    ..\APP\fileopt.c                         0x00000000   Number         0  fileopt.o ABSOLUTE
    ..\APP\lcdopt.c                          0x00000000   Number         0  lcdopt.o ABSOLUTE
    ..\APP\util.c                            0x00000000   Number         0  util.o ABSOLUTE
    ..\CORE\core_cm3.c                       0x00000000   Number         0  core_cm3.o ABSOLUTE
    ..\CORE\startup_stm32f10x_hd.s           0x00000000   Number         0  startup_stm32f10x_hd.o ABSOLUTE
    ..\FATFS\exfuns\exfuns.c                 0x00000000   Number         0  exfuns.o ABSOLUTE
    ..\FATFS\exfuns\fattester.c              0x00000000   Number         0  fattester.o ABSOLUTE
    ..\FATFS\src\diskio.c                    0x00000000   Number         0  diskio.o ABSOLUTE
    ..\FATFS\src\ff.c                        0x00000000   Number         0  ff.o ABSOLUTE
    ..\FATFS\src\option\cc936.c              0x00000000   Number         0  cc936.o ABSOLUTE
    ..\HARDWARE\CH376\CH376_SPI.C            0x00000000   Number         0  ch376_spi.o ABSOLUTE
    ..\HARDWARE\CH376\DEBUG.C                0x00000000   Number         0  debug.o ABSOLUTE
    ..\HARDWARE\CH376\FILE_SYS.C             0x00000000   Number         0  file_sys.o ABSOLUTE
    ..\HARDWARE\FLASH\flash.c                0x00000000   Number         0  flash.o ABSOLUTE
    ..\HARDWARE\HX711\HX711.c                0x00000000   Number         0  hx711.o ABSOLUTE
    ..\HARDWARE\RC522\rc522.c                0x00000000   Number         0  rc522.o ABSOLUTE
    ..\HARDWARE\RTC\rtc.c                    0x00000000   Number         0  rtc.o ABSOLUTE
    ..\HARDWARE\SD\MMC_SD.C                  0x00000000   Number         0  mmc_sd.o ABSOLUTE
    ..\HARDWARE\SPI\spi.c                    0x00000000   Number         0  spi.o ABSOLUTE
    ..\LCD_Driver\EzUI_Ctrl.c                0x00000000   Number         0  ezui_ctrl.o ABSOLUTE
    ..\LCD_Driver\LCD_Dis.c                  0x00000000   Number         0  lcd_dis.o ABSOLUTE
    ..\MALLOC\malloc.c                       0x00000000   Number         0  malloc.o ABSOLUTE
    ..\STM32F10x_FWLib\src\misc.c            0x00000000   Number         0  misc.o ABSOLUTE
    ..\STM32F10x_FWLib\src\stm32f10x_bkp.c   0x00000000   Number         0  stm32f10x_bkp.o ABSOLUTE
    ..\STM32F10x_FWLib\src\stm32f10x_dma.c   0x00000000   Number         0  stm32f10x_dma.o ABSOLUTE
    ..\STM32F10x_FWLib\src\stm32f10x_flash.c 0x00000000   Number         0  stm32f10x_flash.o ABSOLUTE
    ..\STM32F10x_FWLib\src\stm32f10x_gpio.c  0x00000000   Number         0  stm32f10x_gpio.o ABSOLUTE
    ..\STM32F10x_FWLib\src\stm32f10x_pwr.c   0x00000000   Number         0  stm32f10x_pwr.o ABSOLUTE
    ..\STM32F10x_FWLib\src\stm32f10x_rcc.c   0x00000000   Number         0  stm32f10x_rcc.o ABSOLUTE
    ..\STM32F10x_FWLib\src\stm32f10x_rtc.c   0x00000000   Number         0  stm32f10x_rtc.o ABSOLUTE
    ..\STM32F10x_FWLib\src\stm32f10x_spi.c   0x00000000   Number         0  stm32f10x_spi.o ABSOLUTE
    ..\STM32F10x_FWLib\src\stm32f10x_usart.c 0x00000000   Number         0  stm32f10x_usart.o ABSOLUTE
    ..\SYSTEM\delay\delay.c                  0x00000000   Number         0  delay.o ABSOLUTE
    ..\SYSTEM\sys\sys.c                      0x00000000   Number         0  sys.o ABSOLUTE
    ..\SYSTEM\usart\usart.c                  0x00000000   Number         0  usart.o ABSOLUTE
    ..\UCOSII\CORE\os_core.c                 0x00000000   Number         0  os_core.o ABSOLUTE
    ..\UCOSII\CORE\os_flag.c                 0x00000000   Number         0  os_flag.o ABSOLUTE
    ..\UCOSII\CORE\os_mbox.c                 0x00000000   Number         0  os_mbox.o ABSOLUTE
    ..\UCOSII\CORE\os_mem.c                  0x00000000   Number         0  os_mem.o ABSOLUTE
    ..\UCOSII\CORE\os_mutex.c                0x00000000   Number         0  os_mutex.o ABSOLUTE
    ..\UCOSII\CORE\os_q.c                    0x00000000   Number         0  os_q.o ABSOLUTE
    ..\UCOSII\CORE\os_sem.c                  0x00000000   Number         0  os_sem.o ABSOLUTE
    ..\UCOSII\CORE\os_task.c                 0x00000000   Number         0  os_task.o ABSOLUTE
    ..\UCOSII\CORE\os_time.c                 0x00000000   Number         0  os_time.o ABSOLUTE
    ..\UCOSII\CORE\os_tmr.c                  0x00000000   Number         0  os_tmr.o ABSOLUTE
    ..\UCOSII\PORT\os_cpu_a.asm              0x00000000   Number         0  os_cpu_a.o ABSOLUTE
    ..\UCOSII\PORT\os_cpu_c.c                0x00000000   Number         0  os_cpu_c.o ABSOLUTE
    ..\\CORE\\core_cm3.c                     0x00000000   Number         0  core_cm3.o ABSOLUTE
    dc.s                                     0x00000000   Number         0  dc.o ABSOLUTE
    main.c                                   0x00000000   Number         0  main.o ABSOLUTE
    stm32f10x_it.c                           0x00000000   Number         0  stm32f10x_it.o ABSOLUTE
    system_stm32f10x.c                       0x00000000   Number         0  system_stm32f10x.o ABSOLUTE
    RESET                                    0x08000000   Section      304  startup_stm32f10x_hd.o(RESET)
    !!!main                                  0x08000130   Section        8  __main.o(!!!main)
    !!!scatter                               0x08000138   Section       52  __scatter.o(!!!scatter)
    !!dczerorl2                              0x0800016c   Section       90  __dczerorl2.o(!!dczerorl2)
    !!handler_zi                             0x080001c8   Section       28  __scatter_zi.o(!!handler_zi)
    .ARM.Collect$$_printf_percent$$00000000  0x080001e4   Section        0  _printf_percent.o(.ARM.Collect$$_printf_percent$$00000000)
    .ARM.Collect$$_printf_percent$$00000003  0x080001e4   Section        6  _printf_f.o(.ARM.Collect$$_printf_percent$$00000003)
    .ARM.Collect$$_printf_percent$$00000009  0x080001ea   Section        6  _printf_d.o(.ARM.Collect$$_printf_percent$$00000009)
    .ARM.Collect$$_printf_percent$$00000014  0x080001f0   Section        6  _printf_s.o(.ARM.Collect$$_printf_percent$$00000014)
    .ARM.Collect$$_printf_percent$$00000017  0x080001f6   Section        4  _printf_percent_end.o(.ARM.Collect$$_printf_percent$$00000017)
    .ARM.Collect$$libinit$$00000000          0x080001fa   Section        6  libinit.o(.ARM.Collect$$libinit$$00000000)
    .ARM.Collect$$libinit$$00000006          0x08000200   Section        0  libinit2.o(.ARM.Collect$$libinit$$00000006)
    .ARM.Collect$$libinit$$00000008          0x08000200   Section        0  libinit2.o(.ARM.Collect$$libinit$$00000008)
    .ARM.Collect$$libinit$$0000000A          0x08000200   Section        0  libinit2.o(.ARM.Collect$$libinit$$0000000A)
    .ARM.Collect$$libinit$$0000000B          0x08000200   Section        6  libinit2.o(.ARM.Collect$$libinit$$0000000B)
    .ARM.Collect$$libinit$$0000000D          0x08000206   Section        0  libinit2.o(.ARM.Collect$$libinit$$0000000D)
    .ARM.Collect$$libinit$$0000000E          0x08000206   Section       12  libinit2.o(.ARM.Collect$$libinit$$0000000E)
    .ARM.Collect$$libinit$$0000000F          0x08000212   Section        0  libinit2.o(.ARM.Collect$$libinit$$0000000F)
    .ARM.Collect$$libinit$$00000011          0x08000212   Section        0  libinit2.o(.ARM.Collect$$libinit$$00000011)
    .ARM.Collect$$libinit$$00000012          0x08000212   Section       10  libinit2.o(.ARM.Collect$$libinit$$00000012)
    .ARM.Collect$$libinit$$00000013          0x0800021c   Section        0  libinit2.o(.ARM.Collect$$libinit$$00000013)
    .ARM.Collect$$libinit$$00000015          0x0800021c   Section        0  libinit2.o(.ARM.Collect$$libinit$$00000015)
    .ARM.Collect$$libinit$$00000017          0x0800021c   Section        0  libinit2.o(.ARM.Collect$$libinit$$00000017)
    .ARM.Collect$$libinit$$00000019          0x0800021c   Section        0  libinit2.o(.ARM.Collect$$libinit$$00000019)
    .ARM.Collect$$libinit$$0000001B          0x0800021c   Section        0  libinit2.o(.ARM.Collect$$libinit$$0000001B)
    .ARM.Collect$$libinit$$0000001D          0x0800021c   Section        0  libinit2.o(.ARM.Collect$$libinit$$0000001D)
    .ARM.Collect$$libinit$$0000001F          0x0800021c   Section        0  libinit2.o(.ARM.Collect$$libinit$$0000001F)
    .ARM.Collect$$libinit$$00000021          0x0800021c   Section        0  libinit2.o(.ARM.Collect$$libinit$$00000021)
    .ARM.Collect$$libinit$$00000028          0x0800021c   Section        0  libinit2.o(.ARM.Collect$$libinit$$00000028)
    .ARM.Collect$$libinit$$0000002A          0x0800021c   Section        0  libinit2.o(.ARM.Collect$$libinit$$0000002A)
    .ARM.Collect$$libinit$$0000002C          0x0800021c   Section        0  libinit2.o(.ARM.Collect$$libinit$$0000002C)
    .ARM.Collect$$libinit$$0000002E          0x0800021c   Section        0  libinit2.o(.ARM.Collect$$libinit$$0000002E)
    .ARM.Collect$$libinit$$0000002F          0x0800021c   Section        2  libinit2.o(.ARM.Collect$$libinit$$0000002F)
    .ARM.Collect$$libshutdown$$00000000      0x0800021e   Section        2  libshutdown.o(.ARM.Collect$$libshutdown$$00000000)
    .ARM.Collect$$libshutdown$$00000003      0x08000220   Section        0  libshutdown2.o(.ARM.Collect$$libshutdown$$00000003)
    .ARM.Collect$$libshutdown$$00000006      0x08000220   Section        0  libshutdown2.o(.ARM.Collect$$libshutdown$$00000006)
    .ARM.Collect$$libshutdown$$00000009      0x08000220   Section        0  libshutdown2.o(.ARM.Collect$$libshutdown$$00000009)
    .ARM.Collect$$libshutdown$$0000000B      0x08000220   Section        0  libshutdown2.o(.ARM.Collect$$libshutdown$$0000000B)
    .ARM.Collect$$libshutdown$$0000000E      0x08000220   Section        0  libshutdown2.o(.ARM.Collect$$libshutdown$$0000000E)
    .ARM.Collect$$libshutdown$$0000000F      0x08000220   Section        2  libshutdown2.o(.ARM.Collect$$libshutdown$$0000000F)
    .ARM.Collect$$rtentry$$00000000          0x08000222   Section        0  rtentry.o(.ARM.Collect$$rtentry$$00000000)
    .ARM.Collect$$rtentry$$00000002          0x08000222   Section        0  rtentry2.o(.ARM.Collect$$rtentry$$00000002)
    .ARM.Collect$$rtentry$$00000004          0x08000222   Section        6  rtentry4.o(.ARM.Collect$$rtentry$$00000004)
    .ARM.Collect$$rtentry$$00000009          0x08000228   Section        0  rtentry2.o(.ARM.Collect$$rtentry$$00000009)
    .ARM.Collect$$rtentry$$0000000A          0x08000228   Section        4  rtentry2.o(.ARM.Collect$$rtentry$$0000000A)
    .ARM.Collect$$rtentry$$0000000C          0x0800022c   Section        0  rtentry2.o(.ARM.Collect$$rtentry$$0000000C)
    .ARM.Collect$$rtentry$$0000000D          0x0800022c   Section        8  rtentry2.o(.ARM.Collect$$rtentry$$0000000D)
    .ARM.Collect$$rtexit$$00000000           0x08000234   Section        2  rtexit.o(.ARM.Collect$$rtexit$$00000000)
    .ARM.Collect$$rtexit$$00000002           0x08000236   Section        0  rtexit2.o(.ARM.Collect$$rtexit$$00000002)
    .ARM.Collect$$rtexit$$00000003           0x08000236   Section        4  rtexit2.o(.ARM.Collect$$rtexit$$00000003)
    .ARM.Collect$$rtexit$$00000004           0x0800023a   Section        6  rtexit2.o(.ARM.Collect$$rtexit$$00000004)
    .text                                    0x08000240   Section        0  main.o(.text)
    .text                                    0x08000364   Section        0  stm32f10x_it.o(.text)
    .text                                    0x08000390   Section        0  system_stm32f10x.o(.text)
    SetSysClockTo72                          0x08000391   Thumb Code   192  system_stm32f10x.o(.text)
    SetSysClock                              0x08000451   Thumb Code     8  system_stm32f10x.o(.text)
    .text                                    0x08000558   Section        0  spi.o(.text)
    .text                                    0x080006f4   Section        0  flash.o(.text)
    .text                                    0x08000a54   Section        0  mmc_sd.o(.text)
    .text                                    0x08000f78   Section        0  rc522.o(.text)
    .text                                    0x080018a0   Section        0  hx711.o(.text)
    .text                                    0x08001a5c   Section        0  rtc.o(.text)
    RTC_NVIC_Config                          0x08001a5d   Thumb Code    32  rtc.o(.text)
    .text                                    0x08001ddc   Section        0  ch376_spi.o(.text)
    .text                                    0x08002014   Section        0  debug.o(.text)
    .text                                    0x08002024   Section        0  file_sys.o(.text)
    .text                                    0x080028a4   Section        0  delay.o(.text)
    .text                                    0x08002998   Section        0  sys.o(.text)
    .text                                    0x080029a4   Section        0  usart.o(.text)
    .text                                    0x080030e8   Section       64  startup_stm32f10x_hd.o(.text)
    .text                                    0x08003128   Section        0  stm32f10x_gpio.o(.text)
    .text                                    0x08003480   Section        0  stm32f10x_rcc.o(.text)
    .text                                    0x08003820   Section        0  stm32f10x_usart.o(.text)
    .text                                    0x08003c2c   Section        0  misc.o(.text)
    .text                                    0x08003d08   Section        0  stm32f10x_spi.o(.text)
    .text                                    0x08004018   Section        0  stm32f10x_bkp.o(.text)
    .text                                    0x080040c4   Section        0  stm32f10x_rtc.o(.text)
    .text                                    0x08004214   Section        0  stm32f10x_pwr.o(.text)
    .text                                    0x080042e0   Section        0  stm32f10x_dma.o(.text)
    .text                                    0x08004530   Section        0  os_core.o(.text)
    OS_InitTaskStat                          0x080045db   Thumb Code    52  os_core.o(.text)
    OS_InitTaskIdle                          0x08004631   Thumb Code    52  os_core.o(.text)
    OS_InitEventList                         0x08004677   Thumb Code    74  os_core.o(.text)
    OS_InitTCBList                           0x080046c1   Thumb Code   106  os_core.o(.text)
    OS_InitRdyList                           0x0800472b   Thumb Code    44  os_core.o(.text)
    OS_InitMisc                              0x08004757   Thumb Code    44  os_core.o(.text)
    OS_SchedNew                              0x080047cb   Thumb Code    26  os_core.o(.text)
    .text                                    0x08004df0   Section        0  os_flag.o(.text)
    OS_FlagTaskRdy                           0x08004f77   Thumb Code    96  os_flag.o(.text)
    OS_FlagBlock                             0x0800513f   Thumb Code   168  os_flag.o(.text)
    .text                                    0x0800564c   Section        0  os_q.o(.text)
    .text                                    0x08005c34   Section        0  os_task.o(.text)
    .text                                    0x08006420   Section        0  os_time.o(.text)
    .text                                    0x080065e0   Section        0  os_cpu_c.o(.text)
    .text                                    0x08006690   Section      180  os_cpu_a.o(.text)
    .text                                    0x08006744   Section        0  malloc.o(.text)
    .text                                    0x080068e0   Section        0  exfuns.o(.text)
    .text                                    0x08006a78   Section        0  ff.o(.text)
    mem_cpy                                  0x08006a79   Thumb Code    26  ff.o(.text)
    mem_set                                  0x08006a93   Thumb Code    20  ff.o(.text)
    mem_cmp                                  0x08006aa7   Thumb Code    38  ff.o(.text)
    chk_chr                                  0x08006acd   Thumb Code    20  ff.o(.text)
    sync_window                              0x08006ae1   Thumb Code    76  ff.o(.text)
    move_window                              0x08006b2d   Thumb Code    50  ff.o(.text)
    sync_fs                                  0x08006b5f   Thumb Code   198  ff.o(.text)
    remove_chain                             0x08006e5d   Thumb Code   108  ff.o(.text)
    create_chain                             0x08006ec9   Thumb Code   214  ff.o(.text)
    clmt_clust                               0x08006f9f   Thumb Code    50  ff.o(.text)
    dir_sdi                                  0x08006fd1   Thumb Code   158  ff.o(.text)
    dir_next                                 0x0800706f   Thumb Code   270  ff.o(.text)
    dir_alloc                                0x0800717d   Thumb Code    92  ff.o(.text)
    ld_clust                                 0x080071d9   Thumb Code    32  ff.o(.text)
    st_clust                                 0x080071f9   Thumb Code    16  ff.o(.text)
    cmp_lfn                                  0x08007209   Thumb Code   138  ff.o(.text)
    pick_lfn                                 0x08007293   Thumb Code   112  ff.o(.text)
    fit_lfn                                  0x08007303   Thumb Code   122  ff.o(.text)
    gen_numname                              0x0800737d   Thumb Code   196  ff.o(.text)
    sum_sfn                                  0x08007441   Thumb Code    32  ff.o(.text)
    dir_find                                 0x08007461   Thumb Code   222  ff.o(.text)
    dir_read                                 0x0800753f   Thumb Code   196  ff.o(.text)
    dir_register                             0x08007603   Thumb Code   310  ff.o(.text)
    dir_remove                               0x08007739   Thumb Code   106  ff.o(.text)
    get_fileinfo                             0x080077a3   Thumb Code   268  ff.o(.text)
    create_name                              0x080078af   Thumb Code   604  ff.o(.text)
    follow_path                              0x08007b0b   Thumb Code   144  ff.o(.text)
    get_ldnumber                             0x08007b9b   Thumb Code    74  ff.o(.text)
    check_fs                                 0x08007be5   Thumb Code   140  ff.o(.text)
    find_volume                              0x08007c71   Thumb Code   916  ff.o(.text)
    validate                                 0x08008005   Thumb Code    54  ff.o(.text)
    putc_bfd                                 0x08009995   Thumb Code    68  ff.o(.text)
    .text                                    0x08009d04   Section        0  diskio.o(.text)
    .text                                    0x08009efc   Section        0  cc936.o(.text)
    .text                                    0x08009fb0   Section        0  ezui_ctrl.o(.text)
    .text                                    0x0800a4b0   Section        0  util.o(.text)
    .text                                    0x0800a728   Section        0  lcdopt.o(.text)
    .text                                    0x0800b600   Section        0  fileopt.o(.text)
    __set_current_price                      0x0800b6db   Thumb Code     8  fileopt.o(.text)
    get_name                                 0x0800b6e3   Thumb Code   124  fileopt.o(.text)
    search_by_work_id                        0x0800c7e5   Thumb Code   268  fileopt.o(.text)
    .text                                    0x0800d7b0   Section        0  ch376_api.o(.text)
    .text                                    0x0800db0c   Section        2  use_no_semi_2.o(.text)
    .text                                    0x0800db10   Section        0  __2sprintf.o(.text)
    .text                                    0x0800db3c   Section        0  _printf_pad.o(.text)
    .text                                    0x0800db8e   Section        0  _printf_str.o(.text)
    .text                                    0x0800dbe0   Section        0  _printf_dec.o(.text)
    .text                                    0x0800dc58   Section        0  __printf_wp.o(.text)
    .text                                    0x0800dd66   Section        0  atoi.o(.text)
    .text                                    0x0800dd80   Section        0  strtok.o(.text)
    .text                                    0x0800dd8c   Section        0  strstr.o(.text)
    .text                                    0x0800ddb0   Section        0  strcpy.o(.text)
    .text                                    0x0800ddf8   Section        0  strlen.o(.text)
    .text                                    0x0800de36   Section        0  strncmp.o(.text)
    .text                                    0x0800decc   Section        0  strcat.o(.text)
    .text                                    0x0800dee4   Section      138  rt_memcpy_v6.o(.text)
    .text                                    0x0800df6e   Section      100  rt_memcpy_w.o(.text)
    .text                                    0x0800dfd2   Section       68  rt_memclr.o(.text)
    .text                                    0x0800e016   Section       78  rt_memclr_w.o(.text)
    .text                                    0x0800e064   Section      128  strcmpv7m.o(.text)
    .text                                    0x0800e0e4   Section        0  heapauxi.o(.text)
    .text                                    0x0800e0ea   Section        2  use_no_semi.o(.text)
    .text                                    0x0800e0ec   Section        8  rt_errno_addr_intlibspace.o(.text)
    .text                                    0x0800e0f4   Section        0  _printf_intcommon.o(.text)
    .text                                    0x0800e1ac   Section        0  _printf_fp_dec.o(.text)
    _fp_digits                               0x0800e1af   Thumb Code   428  _printf_fp_dec.o(.text)
    .text                                    0x0800e5cc   Section        0  _printf_char_common.o(.text)
    _printf_input_char                       0x0800e5cd   Thumb Code    10  _printf_char_common.o(.text)
    .text                                    0x0800e5fc   Section        0  _sputc.o(.text)
    .text                                    0x0800e606   Section        0  _printf_char.o(.text)
    .text                                    0x0800e632   Section        0  strtol.o(.text)
    .text                                    0x0800e6a4   Section        0  strtok_int.o(.text)
    .text                                    0x0800e6e8   Section        8  libspace.o(.text)
    .text                                    0x0800e6f0   Section       16  rt_ctype_table.o(.text)
    .text                                    0x0800e700   Section        8  rt_locale_intlibspace.o(.text)
    .text                                    0x0800e708   Section      138  lludiv10.o(.text)
    .text                                    0x0800e794   Section        0  _printf_fp_infnan.o(.text)
    .text                                    0x0800e814   Section        0  _strtoul.o(.text)
    .text                                    0x0800e8b4   Section        0  bigflt0.o(.text)
    .text                                    0x0800e998   Section        0  strcspn.o(.text)
    .text                                    0x0800e9b8   Section        0  strspn.o(.text)
    .text                                    0x0800e9d4   Section       74  sys_stackheap_outer.o(.text)
    .text                                    0x0800ea1e   Section        0  _chval.o(.text)
    .text                                    0x0800ea3a   Section        0  exit.o(.text)
    .text                                    0x0800ea48   Section        8  rt_fp_status_addr_intlibspace.o(.text)
    CL$$btod_d2e                             0x0800ea50   Section       62  btod.o(CL$$btod_d2e)
    CL$$btod_d2e_denorm_low                  0x0800ea8e   Section       70  btod.o(CL$$btod_d2e_denorm_low)
    CL$$btod_d2e_norm_op1                    0x0800ead4   Section       96  btod.o(CL$$btod_d2e_norm_op1)
    CL$$btod_div_common                      0x0800eb34   Section      824  btod.o(CL$$btod_div_common)
    CL$$btod_e2e                             0x0800ee6c   Section      198  btod.o(CL$$btod_e2e)
    CL$$btod_ediv                            0x0800ef32   Section       40  btod.o(CL$$btod_ediv)
    CL$$btod_emul                            0x0800ef5a   Section       40  btod.o(CL$$btod_emul)
    CL$$btod_mult_common                     0x0800ef82   Section      580  btod.o(CL$$btod_mult_common)
    i.__ARM_fpclassify                       0x0800f1c6   Section        0  fpclassify.o(i.__ARM_fpclassify)
    i._is_digit                              0x0800f1ee   Section        0  __printf_wp.o(i._is_digit)
    locale$$code                             0x0800f1fc   Section       44  lc_numeric_c.o(locale$$code)
    locale$$code                             0x0800f228   Section       44  lc_ctype_c.o(locale$$code)
    x$fpl$d2f                                0x0800f254   Section       98  d2f.o(x$fpl$d2f)
    x$fpl$dadd                               0x0800f2b8   Section      336  daddsub_clz.o(x$fpl$dadd)
    _dadd1                                   0x0800f2c9   Thumb Code     0  daddsub_clz.o(x$fpl$dadd)
    x$fpl$dmul                               0x0800f408   Section      340  dmul.o(x$fpl$dmul)
    x$fpl$dnaninf                            0x0800f55c   Section      156  dnaninf.o(x$fpl$dnaninf)
    x$fpl$dretinf                            0x0800f5f8   Section       12  dretinf.o(x$fpl$dretinf)
    x$fpl$dsub                               0x0800f604   Section      468  daddsub_clz.o(x$fpl$dsub)
    _dsub1                                   0x0800f615   Thumb Code     0  daddsub_clz.o(x$fpl$dsub)
    x$fpl$f2d                                0x0800f7d8   Section       86  f2d.o(x$fpl$f2d)
    x$fpl$fadd                               0x0800f830   Section      196  faddsub_clz.o(x$fpl$fadd)
    _fadd1                                   0x0800f83f   Thumb Code     0  faddsub_clz.o(x$fpl$fadd)
    x$fpl$fcmpinf                            0x0800f8f4   Section       24  fcmpi.o(x$fpl$fcmpinf)
    x$fpl$fdiv                               0x0800f90c   Section      388  fdiv.o(x$fpl$fdiv)
    _fdiv1                                   0x0800f90d   Thumb Code     0  fdiv.o(x$fpl$fdiv)
    x$fpl$feqf                               0x0800fa90   Section      104  feqf.o(x$fpl$feqf)
    x$fpl$ffix                               0x0800faf8   Section       54  ffix.o(x$fpl$ffix)
    x$fpl$fflt                               0x0800fb30   Section       48  fflt_clz.o(x$fpl$fflt)
    x$fpl$ffltu                              0x0800fb60   Section       38  fflt_clz.o(x$fpl$ffltu)
    x$fpl$fleqf                              0x0800fb88   Section      104  fleqf.o(x$fpl$fleqf)
    x$fpl$fmul                               0x0800fbf0   Section      258  fmul.o(x$fpl$fmul)
    x$fpl$fnaninf                            0x0800fcf2   Section      140  fnaninf.o(x$fpl$fnaninf)
    x$fpl$fpinit                             0x0800fd7e   Section       14  fpinit.o(x$fpl$fpinit)
    x$fpl$fretinf                            0x0800fd8c   Section       10  fretinf.o(x$fpl$fretinf)
    x$fpl$frsb                               0x0800fd96   Section       20  faddsub_clz.o(x$fpl$frsb)
    x$fpl$fsub                               0x0800fdac   Section      234  faddsub_clz.o(x$fpl$fsub)
    _fsub1                                   0x0800fdbb   Thumb Code     0  faddsub_clz.o(x$fpl$fsub)
    x$fpl$printf1                            0x0800fe96   Section        4  printf1.o(x$fpl$printf1)
    .constdata                               0x0800fe9a   Section       24  rtc.o(.constdata)
    x$fpl$usenofp                            0x0800fe9a   Section        0  usenofp.o(x$fpl$usenofp)
    .constdata                               0x0800feb2   Section      256  os_core.o(.constdata)
    .constdata                               0x0800ffb2   Section       58  ff.o(.constdata)
    LfnOfs                                   0x0800ffb2   Data          13  ff.o(.constdata)
    vst                                      0x0800ffc0   Data          22  ff.o(.constdata)
    cst                                      0x0800ffd6   Data          22  ff.o(.constdata)
    .constdata                               0x0800ffec   Section    175304  cc936.o(.constdata)
    uni2oem                                  0x0800ffec   Data       87172  cc936.o(.constdata)
    oem2uni                                  0x08025470   Data       87172  cc936.o(.constdata)
    tbl_lower                                0x0803a8f4   Data         480  cc936.o(.constdata)
    tbl_upper                                0x0803aad4   Data         480  cc936.o(.constdata)
    .constdata                               0x0803acb4   Section        5  lcdopt.o(.constdata)
    .constdata                               0x0803acbc   Section      148  bigflt0.o(.constdata)
    tenpwrs_x                                0x0803acbc   Data          60  bigflt0.o(.constdata)
    tenpwrs_i                                0x0803acf8   Data          64  bigflt0.o(.constdata)
    .conststring                             0x0803ad50   Section       88  exfuns.o(.conststring)
    locale$$data                             0x0803adc8   Section       28  lc_numeric_c.o(locale$$data)
    __lcnum_c_name                           0x0803adcc   Data           2  lc_numeric_c.o(locale$$data)
    __lcnum_c_start                          0x0803add4   Data           0  lc_numeric_c.o(locale$$data)
    __lcnum_c_point                          0x0803ade0   Data           0  lc_numeric_c.o(locale$$data)
    __lcnum_c_thousands                      0x0803ade2   Data           0  lc_numeric_c.o(locale$$data)
    __lcnum_c_grouping                       0x0803ade3   Data           0  lc_numeric_c.o(locale$$data)
    locale$$data                             0x0803ade4   Section      272  lc_ctype_c.o(locale$$data)
    __lcnum_c_end                            0x0803ade4   Data           0  lc_numeric_c.o(locale$$data)
    __lcctype_c_name                         0x0803ade8   Data           2  lc_ctype_c.o(locale$$data)
    __lcctype_c_start                        0x0803adf0   Data           0  lc_ctype_c.o(locale$$data)
    __lcctype_c_end                          0x0803aef4   Data           0  lc_ctype_c.o(locale$$data)
    .data                                    0x20000000   Section       20  system_stm32f10x.o(.data)
    .data                                    0x20000014   Section        2  flash.o(.data)
    .data                                    0x20000016   Section        1  mmc_sd.o(.data)
    .data                                    0x20000018   Section        2  rtc.o(.data)
    daycnt                                   0x20000018   Data           2  rtc.o(.data)
    .data                                    0x2000001a   Section        4  delay.o(.data)
    fac_us                                   0x2000001a   Data           1  delay.o(.data)
    fac_ms                                   0x2000001c   Data           2  delay.o(.data)
    .data                                    0x20000020   Section      144  usart.o(.data)
    .data                                    0x200000b0   Section       20  stm32f10x_rcc.o(.data)
    APBAHBPrescTable                         0x200000b0   Data          16  stm32f10x_rcc.o(.data)
    ADCPrescTable                            0x200000c0   Data           4  stm32f10x_rcc.o(.data)
    .data                                    0x200000c4   Section       72  os_core.o(.data)
    .data                                    0x2000010c   Section       20  malloc.o(.data)
    .data                                    0x20000120   Section      340  exfuns.o(.data)
    .data                                    0x20000274   Section       10  ff.o(.data)
    FatFs                                    0x20000274   Data           8  ff.o(.data)
    Fsid                                     0x2000027c   Data           2  ff.o(.data)
    .data                                    0x2000027e   Section        2  diskio.o(.data)
    .data                                    0x20000280   Section      352  lcdopt.o(.data)
    .data                                    0x200003e0   Section        2  ch376_api.o(.data)
    .data                                    0x200003e4   Section        4  strtok.o(.data)
    _strtok_saves1                           0x200003e4   Data           4  strtok.o(.data)
    .bss                                     0x200003e8   Section     1280  main.o(.bss)
    START_TASK_STK                           0x200003e8   Data         256  main.o(.bss)
    MAIN_TASK_STK                            0x200004e8   Data        1024  main.o(.bss)
    .bss                                     0x200008e8   Section       18  spi.o(.bss)
    .bss                                     0x200008fa   Section     4096  flash.o(.bss)
    .bss                                     0x200018fa   Section       10  rtc.o(.bss)
    .bss                                     0x20001904   Section      840  usart.o(.bss)
    .bss                                     0x20001c4c   Section     2688  os_core.o(.bss)
    .bss                                     0x200026cc   Section    45696  malloc.o(.bss)
    .bss                                     0x2000d94c   Section      100  lcdopt.o(.bss)
    .bss                                     0x2000d9b0   Section      372  fileopt.o(.bss)
    cur_parm                                 0x2000da10   Data         276  fileopt.o(.bss)
    .bss                                     0x2000db24   Section     1024  ch376_api.o(.bss)
    .bss                                     0x2000df24   Section       96  libspace.o(.bss)
    HEAP                                     0x2000df88   Section      512  startup_stm32f10x_hd.o(HEAP)
    Heap_Mem                                 0x2000df88   Data         512  startup_stm32f10x_hd.o(HEAP)
    STACK                                    0x2000e188   Section     1024  startup_stm32f10x_hd.o(STACK)
    Stack_Mem                                0x2000e188   Data        1024  startup_stm32f10x_hd.o(STACK)
    __initial_sp                             0x2000e588   Data           0  startup_stm32f10x_hd.o(STACK)

    Global Symbols

    Symbol Name                              Value     Ov Type        Size  Object(Section)

    BuildAttributes$$THM_ISAv4$P$D$K$B$S$PE$A:L22UL41UL21$X:L11$S22US41US21$IEEE1$IW$USESV6$~STKCKD$USESV7$~SHL$OTIME$ROPI$IEEEJ$EBA8$UX$STANDARDLIB$REQ8$PRES8$EABIv2 0x00000000   Number         0  anon$$obj.o ABSOLUTE
    __ARM_use_no_argv                        0x00000000   Number         0  main.o ABSOLUTE
    _printf_flags                            0x00000000   Number         0  printf_stubs.o ABSOLUTE
    _printf_return_value                     0x00000000   Number         0  printf_stubs.o ABSOLUTE
    _printf_sizespec                         0x00000000   Number         0  printf_stubs.o ABSOLUTE
    _printf_widthprec                        0x00000000   Number         0  printf_stubs.o ABSOLUTE
    __ARM_exceptions_init                     - Undefined Weak Reference
    __alloca_initialize                       - Undefined Weak Reference
    __cpp_initialize__aeabi_                  - Undefined Weak Reference
    __cxa_finalize                            - Undefined Weak Reference
    __sigvec_lookup                           - Undefined Weak Reference
    _atexit_init                              - Undefined Weak Reference
    _call_atexit_fns                          - Undefined Weak Reference
    _clock_init                               - Undefined Weak Reference
    _fp_trap_init                             - Undefined Weak Reference
    _fp_trap_shutdown                         - Undefined Weak Reference
    _get_lc_collate                           - Undefined Weak Reference
    _get_lc_monetary                          - Undefined Weak Reference
    _get_lc_time                              - Undefined Weak Reference
    _getenv_init                              - Undefined Weak Reference
    _handle_redirection                       - Undefined Weak Reference
    _init_alloc                               - Undefined Weak Reference
    _init_user_alloc                          - Undefined Weak Reference
    _initio                                   - Undefined Weak Reference
    _mutex_acquire                            - Undefined Weak Reference
    _mutex_release                            - Undefined Weak Reference
    _printf_mbtowc                            - Undefined Weak Reference
    _printf_truncate_signed                   - Undefined Weak Reference
    _printf_truncate_unsigned                 - Undefined Weak Reference
    _rand_init                                - Undefined Weak Reference
    _signal_finish                            - Undefined Weak Reference
    _signal_init                              - Undefined Weak Reference
    _terminate_alloc                          - Undefined Weak Reference
    _terminate_user_alloc                     - Undefined Weak Reference
    _terminateio                              - Undefined Weak Reference
    __Vectors_Size                           0x00000130   Number         0  startup_stm32f10x_hd.o ABSOLUTE
    __Vectors                                0x08000000   Data           4  startup_stm32f10x_hd.o(RESET)
    __Vectors_End                            0x08000130   Data           0  startup_stm32f10x_hd.o(RESET)
    __main                                   0x08000131   Thumb Code     8  __main.o(!!!main)
    __scatterload                            0x08000139   Thumb Code     0  __scatter.o(!!!scatter)
    __scatterload_rt2                        0x08000139   Thumb Code    44  __scatter.o(!!!scatter)
    __scatterload_rt2_thumb_only             0x08000139   Thumb Code     0  __scatter.o(!!!scatter)
    __scatterload_null                       0x08000147   Thumb Code     0  __scatter.o(!!!scatter)
    __decompress                             0x0800016d   Thumb Code    90  __dczerorl2.o(!!dczerorl2)
    __decompress1                            0x0800016d   Thumb Code     0  __dczerorl2.o(!!dczerorl2)
    __scatterload_zeroinit                   0x080001c9   Thumb Code    28  __scatter_zi.o(!!handler_zi)
    _printf_f                                0x080001e5   Thumb Code     0  _printf_f.o(.ARM.Collect$$_printf_percent$$00000003)
    _printf_percent                          0x080001e5   Thumb Code     0  _printf_percent.o(.ARM.Collect$$_printf_percent$$00000000)
    _printf_d                                0x080001eb   Thumb Code     0  _printf_d.o(.ARM.Collect$$_printf_percent$$00000009)
    _printf_s                                0x080001f1   Thumb Code     0  _printf_s.o(.ARM.Collect$$_printf_percent$$00000014)
    _printf_percent_end                      0x080001f7   Thumb Code     0  _printf_percent_end.o(.ARM.Collect$$_printf_percent$$00000017)
    __rt_lib_init                            0x080001fb   Thumb Code     0  libinit.o(.ARM.Collect$$libinit$$00000000)
    __rt_lib_init_heap_1                     0x08000201   Thumb Code     0  libinit2.o(.ARM.Collect$$libinit$$00000006)
    __rt_lib_init_lc_common                  0x08000201   Thumb Code     0  libinit2.o(.ARM.Collect$$libinit$$0000000B)
    __rt_lib_init_rand_1                     0x08000201   Thumb Code     0  libinit2.o(.ARM.Collect$$libinit$$0000000A)
    __rt_lib_init_user_alloc_1               0x08000201   Thumb Code     0  libinit2.o(.ARM.Collect$$libinit$$00000008)
    __rt_lib_init_lc_collate_1               0x08000207   Thumb Code     0  libinit2.o(.ARM.Collect$$libinit$$0000000D)
    __rt_lib_init_lc_ctype_2                 0x08000207   Thumb Code     0  libinit2.o(.ARM.Collect$$libinit$$0000000E)
    __rt_lib_init_lc_ctype_1                 0x08000213   Thumb Code     0  libinit2.o(.ARM.Collect$$libinit$$0000000F)
    __rt_lib_init_lc_monetary_1              0x08000213   Thumb Code     0  libinit2.o(.ARM.Collect$$libinit$$00000011)
    __rt_lib_init_lc_numeric_2               0x08000213   Thumb Code     0  libinit2.o(.ARM.Collect$$libinit$$00000012)
    __rt_lib_init_alloca_1                   0x0800021d   Thumb Code     0  libinit2.o(.ARM.Collect$$libinit$$0000002A)
    __rt_lib_init_argv_1                     0x0800021d   Thumb Code     0  libinit2.o(.ARM.Collect$$libinit$$00000028)
    __rt_lib_init_atexit_1                   0x0800021d   Thumb Code     0  libinit2.o(.ARM.Collect$$libinit$$00000017)
    __rt_lib_init_clock_1                    0x0800021d   Thumb Code     0  libinit2.o(.ARM.Collect$$libinit$$0000001D)
    __rt_lib_init_cpp_1                      0x0800021d   Thumb Code     0  libinit2.o(.ARM.Collect$$libinit$$0000002E)
    __rt_lib_init_exceptions_1               0x0800021d   Thumb Code     0  libinit2.o(.ARM.Collect$$libinit$$0000002C)
    __rt_lib_init_fp_trap_1                  0x0800021d   Thumb Code     0  libinit2.o(.ARM.Collect$$libinit$$0000001B)
    __rt_lib_init_getenv_1                   0x0800021d   Thumb Code     0  libinit2.o(.ARM.Collect$$libinit$$0000001F)
    __rt_lib_init_lc_numeric_1               0x0800021d   Thumb Code     0  libinit2.o(.ARM.Collect$$libinit$$00000013)
    __rt_lib_init_lc_time_1                  0x0800021d   Thumb Code     0  libinit2.o(.ARM.Collect$$libinit$$00000015)
    __rt_lib_init_return                     0x0800021d   Thumb Code     0  libinit2.o(.ARM.Collect$$libinit$$0000002F)
    __rt_lib_init_signal_1                   0x0800021d   Thumb Code     0  libinit2.o(.ARM.Collect$$libinit$$00000019)
    __rt_lib_init_stdio_1                    0x0800021d   Thumb Code     0  libinit2.o(.ARM.Collect$$libinit$$00000021)
    __rt_lib_shutdown                        0x0800021f   Thumb Code     0  libshutdown.o(.ARM.Collect$$libshutdown$$00000000)
    __rt_lib_shutdown_fp_trap_1              0x08000221   Thumb Code     0  libshutdown2.o(.ARM.Collect$$libshutdown$$00000006)
    __rt_lib_shutdown_heap_1                 0x08000221   Thumb Code     0  libshutdown2.o(.ARM.Collect$$libshutdown$$0000000E)
    __rt_lib_shutdown_return                 0x08000221   Thumb Code     0  libshutdown2.o(.ARM.Collect$$libshutdown$$0000000F)
    __rt_lib_shutdown_signal_1               0x08000221   Thumb Code     0  libshutdown2.o(.ARM.Collect$$libshutdown$$00000009)
    __rt_lib_shutdown_stdio_1                0x08000221   Thumb Code     0  libshutdown2.o(.ARM.Collect$$libshutdown$$00000003)
    __rt_lib_shutdown_user_alloc_1           0x08000221   Thumb Code     0  libshutdown2.o(.ARM.Collect$$libshutdown$$0000000B)
    __rt_entry                               0x08000223   Thumb Code     0  rtentry.o(.ARM.Collect$$rtentry$$00000000)
    __rt_entry_presh_1                       0x08000223   Thumb Code     0  rtentry2.o(.ARM.Collect$$rtentry$$00000002)
    __rt_entry_sh                            0x08000223   Thumb Code     0  rtentry4.o(.ARM.Collect$$rtentry$$00000004)
    __rt_entry_li                            0x08000229   Thumb Code     0  rtentry2.o(.ARM.Collect$$rtentry$$0000000A)
    __rt_entry_postsh_1                      0x08000229   Thumb Code     0  rtentry2.o(.ARM.Collect$$rtentry$$00000009)
    __rt_entry_main                          0x0800022d   Thumb Code     0  rtentry2.o(.ARM.Collect$$rtentry$$0000000D)
    __rt_entry_postli_1                      0x0800022d   Thumb Code     0  rtentry2.o(.ARM.Collect$$rtentry$$0000000C)
    __rt_exit                                0x08000235   Thumb Code     0  rtexit.o(.ARM.Collect$$rtexit$$00000000)
    __rt_exit_ls                             0x08000237   Thumb Code     0  rtexit2.o(.ARM.Collect$$rtexit$$00000003)
    __rt_exit_prels_1                        0x08000237   Thumb Code     0  rtexit2.o(.ARM.Collect$$rtexit$$00000002)
    __rt_exit_exit                           0x0800023b   Thumb Code     0  rtexit2.o(.ARM.Collect$$rtexit$$00000004)
    tmp                                      0x08000241   Thumb Code    56  main.o(.text)
    system_init                              0x08000279   Thumb Code    80  main.o(.text)
    main_task                                0x080002c9   Thumb Code    34  main.o(.text)
    start_task                               0x080002eb   Thumb Code    42  main.o(.text)
    main                                     0x08000315   Thumb Code    32  main.o(.text)
    NMI_Handler                              0x08000365   Thumb Code     2  stm32f10x_it.o(.text)
    HardFault_Handler                        0x08000367   Thumb Code     4  stm32f10x_it.o(.text)
    MemManage_Handler                        0x0800036b   Thumb Code     4  stm32f10x_it.o(.text)
    BusFault_Handler                         0x0800036f   Thumb Code     4  stm32f10x_it.o(.text)
    UsageFault_Handler                       0x08000373   Thumb Code     4  stm32f10x_it.o(.text)
    SVC_Handler                              0x08000377   Thumb Code     2  stm32f10x_it.o(.text)
    DebugMon_Handler                         0x08000379   Thumb Code     2  stm32f10x_it.o(.text)
    DMA1_Channel4_IRQHandler                 0x0800037b   Thumb Code    22  stm32f10x_it.o(.text)
    SystemInit                               0x08000459   Thumb Code    78  system_stm32f10x.o(.text)
    SystemCoreClockUpdate                    0x080004a7   Thumb Code   142  system_stm32f10x.o(.text)
    SPI1_ReadWriteByte                       0x08000559   Thumb Code    78  spi.o(.text)
    SPI1_Init                                0x080005a7   Thumb Code   108  spi.o(.text)
    SPI1_SetSpeed                            0x08000613   Thumb Code    26  spi.o(.text)
    Myspi_Init                               0x0800062d   Thumb Code   184  spi.o(.text)
    SPI_Flash_ReadID                         0x080006f5   Thumb Code    66  flash.o(.text)
    SPI_Flash_Init                           0x08000737   Thumb Code    64  flash.o(.text)
    SPI_Flash_ReadSR                         0x08000777   Thumb Code    38  flash.o(.text)
    SPI_FLASH_Write_SR                       0x0800079d   Thumb Code    34  flash.o(.text)
    SPI_FLASH_Write_Enable                   0x080007bf   Thumb Code    26  flash.o(.text)
    SPI_FLASH_Write_Disable                  0x080007d9   Thumb Code    26  flash.o(.text)
    SPI_Flash_Read                           0x080007f3   Thumb Code    76  flash.o(.text)
    SPI_Flash_Wait_Busy                      0x0800083f   Thumb Code    18  flash.o(.text)
    SPI_Flash_Write_Page                     0x08000851   Thumb Code    82  flash.o(.text)
    SPI_Flash_Write_NoCheck                  0x080008a3   Thumb Code    70  flash.o(.text)
    SPI_Flash_Erase_Sector                   0x080008e9   Thumb Code    64  flash.o(.text)
    SPI_Flash_Write                          0x08000929   Thumb Code   176  flash.o(.text)
    SPI_Flash_Erase_Chip                     0x080009d9   Thumb Code    38  flash.o(.text)
    SPI_Flash_PowerDown                      0x080009ff   Thumb Code    32  flash.o(.text)
    SPI_Flash_WAKEUP                         0x08000a1f   Thumb Code    32  flash.o(.text)
    SD_SPI_ReadWriteByte                     0x08000a55   Thumb Code    12  mmc_sd.o(.text)
    SD_SPI_SpeedLow                          0x08000a61   Thumb Code    10  mmc_sd.o(.text)
    SD_SPI_SpeedHigh                         0x08000a6b   Thumb Code    10  mmc_sd.o(.text)
    SD_SPI_Init                              0x08000a75   Thumb Code    54  mmc_sd.o(.text)
    SD_DisSelect                             0x08000aab   Thumb Code    18  mmc_sd.o(.text)
    SD_WaitReady                             0x08000abd   Thumb Code    34  mmc_sd.o(.text)
    SD_Select                                0x08000adf   Thumb Code    26  mmc_sd.o(.text)
    SD_GetResponse                           0x08000af9   Thumb Code    38  mmc_sd.o(.text)
    SD_RecvData                              0x08000b1f   Thumb Code    56  mmc_sd.o(.text)
    SD_SendBlock                             0x08000b57   Thumb Code    82  mmc_sd.o(.text)
    SD_SendCmd                               0x08000ba9   Thumb Code   120  mmc_sd.o(.text)
    SD_GetCID                                0x08000c21   Thumb Code    42  mmc_sd.o(.text)
    SD_GetCSD                                0x08000c4b   Thumb Code    42  mmc_sd.o(.text)
    SD_GetSectorCount                        0x08000c75   Thumb Code   118  mmc_sd.o(.text)
    SD_Initialize                            0x08000ceb   Thumb Code   398  mmc_sd.o(.text)
    SD_ReadDisk                              0x08000e79   Thumb Code   112  mmc_sd.o(.text)
    SD_WriteDisk                             0x08000ee9   Thumb Code   140  mmc_sd.o(.text)
    WriteRawRC                               0x08000f79   Thumb Code   186  rc522.o(.text)
    ReadRawRC                                0x08001033   Thumb Code   172  rc522.o(.text)
    SetBitMask                               0x080010df   Thumb Code    28  rc522.o(.text)
    ClearBitMask                             0x080010fb   Thumb Code    28  rc522.o(.text)
    PcdComMF522                              0x08001117   Thumb Code   304  rc522.o(.text)
    PcdRequest                               0x08001247   Thumb Code    98  rc522.o(.text)
    PcdAnticoll                              0x080012a9   Thumb Code   112  rc522.o(.text)
    CalulateCRC                              0x08001319   Thumb Code   116  rc522.o(.text)
    PcdSelect                                0x0800138d   Thumb Code   114  rc522.o(.text)
    PcdAuthState                             0x080013ff   Thumb Code   132  rc522.o(.text)
    PcdRead                                  0x08001483   Thumb Code    84  rc522.o(.text)
    PcdWrite                                 0x080014d7   Thumb Code   146  rc522.o(.text)
    PcdHalt                                  0x08001569   Thumb Code    52  rc522.o(.text)
    PcdReset                                 0x0800159d   Thumb Code   116  rc522.o(.text)
    PcdAntennaOn                             0x08001611   Thumb Code    26  rc522.o(.text)
    M500PcdConfigISOType                     0x0800162b   Thumb Code    92  rc522.o(.text)
    PcdAntennaOff                            0x08001687   Thumb Code    12  rc522.o(.text)
    PcdValue                                 0x08001693   Thumb Code   184  rc522.o(.text)
    PcdBakValue                              0x0800174b   Thumb Code   198  rc522.o(.text)
    InitRfid                                 0x08001811   Thumb Code    38  rc522.o(.text)
    ReadCardId                               0x08001837   Thumb Code   100  rc522.o(.text)
    AD_GPIO_Configuration                    0x080018a1   Thumb Code    60  hx711.o(.text)
    Read_HX711                               0x080018dd   Thumb Code   148  hx711.o(.text)
    Read_Weight_Val                          0x08001971   Thumb Code   126  hx711.o(.text)
    Weight_QuPi                              0x080019ef   Thumb Code    86  hx711.o(.text)
    RTC_Get_Week                             0x08001a7d   Thumb Code   114  rtc.o(.text)
    Is_Leap_Year                             0x08001aef   Thumb Code    58  rtc.o(.text)
    RTC_Get                                  0x08001b29   Thumb Code   240  rtc.o(.text)
    RTC_Set                                  0x08001c19   Thumb Code   184  rtc.o(.text)
    RTC_Init                                 0x08001cd1   Thumb Code   190  rtc.o(.text)
    RTC_IRQHandler                           0x08001d8f   Thumb Code    40  rtc.o(.text)
    RTC_GET_COUNT                            0x08001db7   Thumb Code     8  rtc.o(.text)
    SPI2_Init                                0x08001ddd   Thumb Code   216  ch376_spi.o(.text)
    SPI2_ReadWriteByte                       0x08001eb5   Thumb Code    46  ch376_spi.o(.text)
    CH376_PORT_INIT                          0x08001ee3   Thumb Code    14  ch376_spi.o(.text)
    xEndCH376Cmd                             0x08001ef1   Thumb Code     8  ch376_spi.o(.text)
    Spi376OutByte                            0x08001ef9   Thumb Code    12  ch376_spi.o(.text)
    Spi376InByte                             0x08001f05   Thumb Code    24  ch376_spi.o(.text)
    xWriteCH376Cmd                           0x08001f1d   Thumb Code    64  ch376_spi.o(.text)
    xWriteCH376Data                          0x08001f5d   Thumb Code    18  ch376_spi.o(.text)
    xReadCH376Data                           0x08001f6f   Thumb Code    20  ch376_spi.o(.text)
    Query376Interrupt                        0x08001f83   Thumb Code    16  ch376_spi.o(.text)
    mInitCH376Host                           0x08001f93   Thumb Code    94  ch376_spi.o(.text)
    mStopIfError                             0x08002015   Thumb Code    14  debug.o(.text)
    CH376ReadBlock                           0x08002025   Thumb Code    46  file_sys.o(.text)
    CH376WriteReqBlock                       0x08002053   Thumb Code    46  file_sys.o(.text)
    CH376WriteHostBlock                      0x08002081   Thumb Code    44  file_sys.o(.text)
    CH376WriteOfsBlock                       0x080020ad   Thumb Code    52  file_sys.o(.text)
    CH376SetFileName                         0x080020e1   Thumb Code    50  file_sys.o(.text)
    CH376Read32bitDat                        0x08002113   Thumb Code    48  file_sys.o(.text)
    CH376ReadVar8                            0x08002143   Thumb Code    30  file_sys.o(.text)
    CH376WriteVar8                           0x08002161   Thumb Code    30  file_sys.o(.text)
    CH376ReadVar32                           0x0800217f   Thumb Code    22  file_sys.o(.text)
    CH376WriteVar32                          0x08002195   Thumb Code    52  file_sys.o(.text)
    CH376EndDirInfo                          0x080021c9   Thumb Code    12  file_sys.o(.text)
    CH376GetFileSize                         0x080021d5   Thumb Code    10  file_sys.o(.text)
    CH376GetDiskStatus                       0x080021df   Thumb Code    10  file_sys.o(.text)
    CH376GetIntStatus                        0x080021e9   Thumb Code    22  file_sys.o(.text)
    Wait376Interrupt                         0x080021ff   Thumb Code    30  file_sys.o(.text)
    CH376SendCmdWaitInt                      0x0800221d   Thumb Code    20  file_sys.o(.text)
    CH376SendCmdDatWaitInt                   0x08002231   Thumb Code    28  file_sys.o(.text)
    CH376DiskReqSense                        0x0800224d   Thumb Code    26  file_sys.o(.text)
    CH376DiskConnect                         0x08002267   Thumb Code    20  file_sys.o(.text)
    CH376DiskMount                           0x0800227b   Thumb Code    10  file_sys.o(.text)
    CH376FileOpen                            0x08002285   Thumb Code    38  file_sys.o(.text)
    CH376FileCreate                          0x080022ab   Thumb Code    20  file_sys.o(.text)
    CH376DirCreate                           0x080022bf   Thumb Code    38  file_sys.o(.text)
    CH376SeparatePath                        0x080022e5   Thumb Code    46  file_sys.o(.text)
    CH376FileOpenDir                         0x08002313   Thumb Code   100  file_sys.o(.text)
    CH376FileOpenPath                        0x08002377   Thumb Code    14  file_sys.o(.text)
    CH376FileCreatePath                      0x08002385   Thumb Code    56  file_sys.o(.text)
    CH376FileErase                           0x080023bd   Thumb Code    70  file_sys.o(.text)
    CH376FileClose                           0x08002403   Thumb Code    14  file_sys.o(.text)
    CH376DirInfoRead                         0x08002411   Thumb Code    12  file_sys.o(.text)
    CH376DirInfoSave                         0x0800241d   Thumb Code    10  file_sys.o(.text)
    CH376ByteLocate                          0x08002427   Thumb Code    50  file_sys.o(.text)
    CH376ByteRead                            0x08002459   Thumb Code    88  file_sys.o(.text)
    CH376ByteWrite                           0x080024b1   Thumb Code    88  file_sys.o(.text)
    CH376DiskCapacity                        0x08002509   Thumb Code    42  file_sys.o(.text)
    CH376DiskQuery                           0x08002533   Thumb Code   102  file_sys.o(.text)
    CH376SecLocate                           0x08002599   Thumb Code    48  file_sys.o(.text)
    CH376DiskReadSec                         0x080025c9   Thumb Code   170  file_sys.o(.text)
    CH376DiskWriteSec                        0x08002673   Thumb Code   164  file_sys.o(.text)
    CH376SecRead                             0x08002717   Thumb Code   264  file_sys.o(.text)
    CH376SecWrite                            0x0800281f   Thumb Code   134  file_sys.o(.text)
    SysTick_Handler                          0x080028a5   Thumb Code    16  delay.o(.text)
    delay_init                               0x080028b5   Thumb Code    76  delay.o(.text)
    delay_us                                 0x08002901   Thumb Code    70  delay.o(.text)
    delay_ms                                 0x08002947   Thumb Code    62  delay.o(.text)
    NVIC_Configuration                       0x08002999   Thumb Code    12  sys.o(.text)
    _sys_exit                                0x080029a5   Thumb Code     6  usart.o(.text)
    fputc                                    0x080029ab   Thumb Code    22  usart.o(.text)
    USART2_IRQHandler                        0x080029c1   Thumb Code    50  usart.o(.text)
    uart_printer_init                        0x080029f3   Thumb Code   162  usart.o(.text)
    TimerDly                                 0x08002a95   Thumb Code    24  usart.o(.text)
    uart_lcd_init                            0x08002aad   Thumb Code   334  usart.o(.text)
    UART_DMA_Tx_Enable                       0x08002bfb   Thumb Code    38  usart.o(.text)
    UART_DMA_Rx_Enable                       0x08002c21   Thumb Code    46  usart.o(.text)
    UART_SendOneByte                         0x08002c4f   Thumb Code   100  usart.o(.text)
    UART_SendPacked                          0x08002cb3   Thumb Code   202  usart.o(.text)
    UserTestUARTFIFOCommand                  0x08002d7d   Thumb Code   432  usart.o(.text)
    UART_GetByte                             0x08002f2d   Thumb Code    46  usart.o(.text)
    UART_GetWord                             0x08002f5b   Thumb Code    88  usart.o(.text)
    UART_GetSInt                             0x08002fb3   Thumb Code   146  usart.o(.text)
    UART_GetFloat                            0x08003045   Thumb Code   148  usart.o(.text)
    Reset_Handler                            0x080030e9   Thumb Code     8  startup_stm32f10x_hd.o(.text)
    ADC1_2_IRQHandler                        0x08003103   Thumb Code     0  startup_stm32f10x_hd.o(.text)
    ADC3_IRQHandler                          0x08003103   Thumb Code     0  startup_stm32f10x_hd.o(.text)
    CAN1_RX1_IRQHandler                      0x08003103   Thumb Code     0  startup_stm32f10x_hd.o(.text)
    CAN1_SCE_IRQHandler                      0x08003103   Thumb Code     0  startup_stm32f10x_hd.o(.text)
    DMA1_Channel1_IRQHandler                 0x08003103   Thumb Code     0  startup_stm32f10x_hd.o(.text)
    DMA1_Channel2_IRQHandler                 0x08003103   Thumb Code     0  startup_stm32f10x_hd.o(.text)
    DMA1_Channel3_IRQHandler                 0x08003103   Thumb Code     0  startup_stm32f10x_hd.o(.text)
    DMA1_Channel5_IRQHandler                 0x08003103   Thumb Code     0  startup_stm32f10x_hd.o(.text)
    DMA1_Channel6_IRQHandler                 0x08003103   Thumb Code     0  startup_stm32f10x_hd.o(.text)
    DMA1_Channel7_IRQHandler                 0x08003103   Thumb Code     0  startup_stm32f10x_hd.o(.text)
    DMA2_Channel1_IRQHandler                 0x08003103   Thumb Code     0  startup_stm32f10x_hd.o(.text)
    DMA2_Channel2_IRQHandler                 0x08003103   Thumb Code     0  startup_stm32f10x_hd.o(.text)
    DMA2_Channel3_IRQHandler                 0x08003103   Thumb Code     0  startup_stm32f10x_hd.o(.text)
    DMA2_Channel4_5_IRQHandler               0x08003103   Thumb Code     0  startup_stm32f10x_hd.o(.text)
    EXTI0_IRQHandler                         0x08003103   Thumb Code     0  startup_stm32f10x_hd.o(.text)
    EXTI15_10_IRQHandler                     0x08003103   Thumb Code     0  startup_stm32f10x_hd.o(.text)
    EXTI1_IRQHandler                         0x08003103   Thumb Code     0  startup_stm32f10x_hd.o(.text)
    EXTI2_IRQHandler                         0x08003103   Thumb Code     0  startup_stm32f10x_hd.o(.text)
    EXTI3_IRQHandler                         0x08003103   Thumb Code     0  startup_stm32f10x_hd.o(.text)
    EXTI4_IRQHandler                         0x08003103   Thumb Code     0  startup_stm32f10x_hd.o(.text)
    EXTI9_5_IRQHandler                       0x08003103   Thumb Code     0  startup_stm32f10x_hd.o(.text)
    FLASH_IRQHandler                         0x08003103   Thumb Code     0  startup_stm32f10x_hd.o(.text)
    FSMC_IRQHandler                          0x08003103   Thumb Code     0  startup_stm32f10x_hd.o(.text)
    I2C1_ER_IRQHandler                       0x08003103   Thumb Code     0  startup_stm32f10x_hd.o(.text)
    I2C1_EV_IRQHandler                       0x08003103   Thumb Code     0  startup_stm32f10x_hd.o(.text)
    I2C2_ER_IRQHandler                       0x08003103   Thumb Code     0  startup_stm32f10x_hd.o(.text)
    I2C2_EV_IRQHandler                       0x08003103   Thumb Code     0  startup_stm32f10x_hd.o(.text)
    PVD_IRQHandler                           0x08003103   Thumb Code     0  startup_stm32f10x_hd.o(.text)
    RCC_IRQHandler                           0x08003103   Thumb Code     0  startup_stm32f10x_hd.o(.text)
    RTCAlarm_IRQHandler                      0x08003103   Thumb Code     0  startup_stm32f10x_hd.o(.text)
    SDIO_IRQHandler                          0x08003103   Thumb Code     0  startup_stm32f10x_hd.o(.text)
    SPI1_IRQHandler                          0x08003103   Thumb Code     0  startup_stm32f10x_hd.o(.text)
    SPI2_IRQHandler                          0x08003103   Thumb Code     0  startup_stm32f10x_hd.o(.text)
    SPI3_IRQHandler                          0x08003103   Thumb Code     0  startup_stm32f10x_hd.o(.text)
    TAMPER_IRQHandler                        0x08003103   Thumb Code     0  startup_stm32f10x_hd.o(.text)
    TIM1_BRK_IRQHandler                      0x08003103   Thumb Code     0  startup_stm32f10x_hd.o(.text)
    TIM1_CC_IRQHandler                       0x08003103   Thumb Code     0  startup_stm32f10x_hd.o(.text)
    TIM1_TRG_COM_IRQHandler                  0x08003103   Thumb Code     0  startup_stm32f10x_hd.o(.text)
    TIM1_UP_IRQHandler                       0x08003103   Thumb Code     0  startup_stm32f10x_hd.o(.text)
    TIM2_IRQHandler                          0x08003103   Thumb Code     0  startup_stm32f10x_hd.o(.text)
    TIM3_IRQHandler                          0x08003103   Thumb Code     0  startup_stm32f10x_hd.o(.text)
    TIM4_IRQHandler                          0x08003103   Thumb Code     0  startup_stm32f10x_hd.o(.text)
    TIM5_IRQHandler                          0x08003103   Thumb Code     0  startup_stm32f10x_hd.o(.text)
    TIM6_IRQHandler                          0x08003103   Thumb Code     0  startup_stm32f10x_hd.o(.text)
    TIM7_IRQHandler                          0x08003103   Thumb Code     0  startup_stm32f10x_hd.o(.text)
    TIM8_BRK_IRQHandler                      0x08003103   Thumb Code     0  startup_stm32f10x_hd.o(.text)
    TIM8_CC_IRQHandler                       0x08003103   Thumb Code     0  startup_stm32f10x_hd.o(.text)
    TIM8_TRG_COM_IRQHandler                  0x08003103   Thumb Code     0  startup_stm32f10x_hd.o(.text)
    TIM8_UP_IRQHandler                       0x08003103   Thumb Code     0  startup_stm32f10x_hd.o(.text)
    UART4_IRQHandler                         0x08003103   Thumb Code     0  startup_stm32f10x_hd.o(.text)
    UART5_IRQHandler                         0x08003103   Thumb Code     0  startup_stm32f10x_hd.o(.text)
    USART1_IRQHandler                        0x08003103   Thumb Code     0  startup_stm32f10x_hd.o(.text)
    USART3_IRQHandler                        0x08003103   Thumb Code     0  startup_stm32f10x_hd.o(.text)
    USBWakeUp_IRQHandler                     0x08003103   Thumb Code     0  startup_stm32f10x_hd.o(.text)
    USB_HP_CAN1_TX_IRQHandler                0x08003103   Thumb Code     0  startup_stm32f10x_hd.o(.text)
    USB_LP_CAN1_RX0_IRQHandler               0x08003103   Thumb Code     0  startup_stm32f10x_hd.o(.text)
    WWDG_IRQHandler                          0x08003103   Thumb Code     0  startup_stm32f10x_hd.o(.text)
    __user_initial_stackheap                 0x08003105   Thumb Code     0  startup_stm32f10x_hd.o(.text)
    GPIO_DeInit                              0x08003129   Thumb Code   172  stm32f10x_gpio.o(.text)
    GPIO_AFIODeInit                          0x080031d5   Thumb Code    20  stm32f10x_gpio.o(.text)
    GPIO_Init                                0x080031e9   Thumb Code   274  stm32f10x_gpio.o(.text)
    GPIO_StructInit                          0x080032fb   Thumb Code    16  stm32f10x_gpio.o(.text)
    GPIO_ReadInputDataBit                    0x0800330b   Thumb Code    18  stm32f10x_gpio.o(.text)
    GPIO_ReadInputData                       0x0800331d   Thumb Code     8  stm32f10x_gpio.o(.text)
    GPIO_ReadOutputDataBit                   0x08003325   Thumb Code    18  stm32f10x_gpio.o(.text)
    GPIO_ReadOutputData                      0x08003337   Thumb Code     8  stm32f10x_gpio.o(.text)
    GPIO_SetBits                             0x0800333f   Thumb Code     4  stm32f10x_gpio.o(.text)
    GPIO_ResetBits                           0x08003343   Thumb Code     4  stm32f10x_gpio.o(.text)
    GPIO_WriteBit                            0x08003347   Thumb Code    10  stm32f10x_gpio.o(.text)
    GPIO_Write                               0x08003351   Thumb Code     4  stm32f10x_gpio.o(.text)
    GPIO_PinLockConfig                       0x08003355   Thumb Code    18  stm32f10x_gpio.o(.text)
    GPIO_EventOutputConfig                   0x08003367   Thumb Code    26  stm32f10x_gpio.o(.text)
    GPIO_EventOutputCmd                      0x08003381   Thumb Code     6  stm32f10x_gpio.o(.text)
    GPIO_PinRemapConfig                      0x08003387   Thumb Code   138  stm32f10x_gpio.o(.text)
    GPIO_EXTILineConfig                      0x08003411   Thumb Code    66  stm32f10x_gpio.o(.text)
    GPIO_ETH_MediaInterfaceConfig            0x08003453   Thumb Code     6  stm32f10x_gpio.o(.text)
    RCC_DeInit                               0x08003481   Thumb Code    64  stm32f10x_rcc.o(.text)
    RCC_HSEConfig                            0x080034c1   Thumb Code    70  stm32f10x_rcc.o(.text)
    RCC_GetFlagStatus                        0x08003507   Thumb Code    56  stm32f10x_rcc.o(.text)
    RCC_WaitForHSEStartUp                    0x0800353f   Thumb Code    48  stm32f10x_rcc.o(.text)
    RCC_AdjustHSICalibrationValue            0x0800356f   Thumb Code    20  stm32f10x_rcc.o(.text)
    RCC_HSICmd                               0x08003583   Thumb Code     6  stm32f10x_rcc.o(.text)
    RCC_PLLConfig                            0x08003589   Thumb Code    24  stm32f10x_rcc.o(.text)
    RCC_PLLCmd                               0x080035a1   Thumb Code     6  stm32f10x_rcc.o(.text)
    RCC_SYSCLKConfig                         0x080035a7   Thumb Code    18  stm32f10x_rcc.o(.text)
    RCC_GetSYSCLKSource                      0x080035b9   Thumb Code    10  stm32f10x_rcc.o(.text)
    RCC_HCLKConfig                           0x080035c3   Thumb Code    18  stm32f10x_rcc.o(.text)
    RCC_PCLK1Config                          0x080035d5   Thumb Code    18  stm32f10x_rcc.o(.text)
    RCC_PCLK2Config                          0x080035e7   Thumb Code    20  stm32f10x_rcc.o(.text)
    RCC_ITConfig                             0x080035fb   Thumb Code    30  stm32f10x_rcc.o(.text)
    RCC_USBCLKConfig                         0x08003619   Thumb Code     6  stm32f10x_rcc.o(.text)
    RCC_ADCCLKConfig                         0x0800361f   Thumb Code    18  stm32f10x_rcc.o(.text)
    RCC_LSEConfig                            0x08003631   Thumb Code    44  stm32f10x_rcc.o(.text)
    RCC_LSICmd                               0x0800365d   Thumb Code     6  stm32f10x_rcc.o(.text)
    RCC_RTCCLKConfig                         0x08003663   Thumb Code    12  stm32f10x_rcc.o(.text)
    RCC_RTCCLKCmd                            0x0800366f   Thumb Code     8  stm32f10x_rcc.o(.text)
    RCC_GetClocksFreq                        0x08003677   Thumb Code   192  stm32f10x_rcc.o(.text)
    RCC_AHBPeriphClockCmd                    0x08003737   Thumb Code    26  stm32f10x_rcc.o(.text)
    RCC_APB2PeriphClockCmd                   0x08003751   Thumb Code    26  stm32f10x_rcc.o(.text)
    RCC_APB1PeriphClockCmd                   0x0800376b   Thumb Code    26  stm32f10x_rcc.o(.text)
    RCC_APB2PeriphResetCmd                   0x08003785   Thumb Code    26  stm32f10x_rcc.o(.text)
    RCC_APB1PeriphResetCmd                   0x0800379f   Thumb Code    26  stm32f10x_rcc.o(.text)
    RCC_BackupResetCmd                       0x080037b9   Thumb Code     8  stm32f10x_rcc.o(.text)
    RCC_ClockSecuritySystemCmd               0x080037c1   Thumb Code     6  stm32f10x_rcc.o(.text)
    RCC_MCOConfig                            0x080037c7   Thumb Code     6  stm32f10x_rcc.o(.text)
    RCC_ClearFlag                            0x080037cd   Thumb Code    14  stm32f10x_rcc.o(.text)
    RCC_GetITStatus                          0x080037db   Thumb Code    20  stm32f10x_rcc.o(.text)
    RCC_ClearITPendingBit                    0x080037ef   Thumb Code     6  stm32f10x_rcc.o(.text)
    USART_DeInit                             0x08003821   Thumb Code   134  stm32f10x_usart.o(.text)
    USART_Init                               0x080038a7   Thumb Code   210  stm32f10x_usart.o(.text)
    USART_StructInit                         0x08003979   Thumb Code    24  stm32f10x_usart.o(.text)
    USART_ClockInit                          0x08003991   Thumb Code    34  stm32f10x_usart.o(.text)
    USART_ClockStructInit                    0x080039b3   Thumb Code    12  stm32f10x_usart.o(.text)
    USART_Cmd                                0x080039bf   Thumb Code    24  stm32f10x_usart.o(.text)
    USART_ITConfig                           0x080039d7   Thumb Code    74  stm32f10x_usart.o(.text)
    USART_DMACmd                             0x08003a21   Thumb Code    24  stm32f10x_usart.o(.text)
    USART_SetAddress                         0x08003a39   Thumb Code    18  stm32f10x_usart.o(.text)
    USART_WakeUpConfig                       0x08003a4b   Thumb Code    18  stm32f10x_usart.o(.text)
    USART_ReceiverWakeUpCmd                  0x08003a5d   Thumb Code    24  stm32f10x_usart.o(.text)
    USART_LINBreakDetectLengthConfig         0x08003a75   Thumb Code    18  stm32f10x_usart.o(.text)
    USART_LINCmd                             0x08003a87   Thumb Code    24  stm32f10x_usart.o(.text)
    USART_SendData                           0x08003a9f   Thumb Code     8  stm32f10x_usart.o(.text)
    USART_ReceiveData                        0x08003aa7   Thumb Code    10  stm32f10x_usart.o(.text)
    USART_SendBreak                          0x08003ab1   Thumb Code    10  stm32f10x_usart.o(.text)
    USART_SetGuardTime                       0x08003abb   Thumb Code    16  stm32f10x_usart.o(.text)
    USART_SetPrescaler                       0x08003acb   Thumb Code    16  stm32f10x_usart.o(.text)
    USART_SmartCardCmd                       0x08003adb   Thumb Code    24  stm32f10x_usart.o(.text)
    USART_SmartCardNACKCmd                   0x08003af3   Thumb Code    24  stm32f10x_usart.o(.text)
    USART_HalfDuplexCmd                      0x08003b0b   Thumb Code    24  stm32f10x_usart.o(.text)
    USART_OverSampling8Cmd                   0x08003b23   Thumb Code    22  stm32f10x_usart.o(.text)
    USART_OneBitMethodCmd                    0x08003b39   Thumb Code    24  stm32f10x_usart.o(.text)
    USART_IrDAConfig                         0x08003b51   Thumb Code    18  stm32f10x_usart.o(.text)
    USART_IrDACmd                            0x08003b63   Thumb Code    24  stm32f10x_usart.o(.text)
    USART_GetFlagStatus                      0x08003b7b   Thumb Code    26  stm32f10x_usart.o(.text)
    USART_ClearFlag                          0x08003b95   Thumb Code    18  stm32f10x_usart.o(.text)
    USART_GetITStatus                        0x08003ba7   Thumb Code    84  stm32f10x_usart.o(.text)
    USART_ClearITPendingBit                  0x08003bfb   Thumb Code    50  stm32f10x_usart.o(.text)
    NVIC_PriorityGroupConfig                 0x08003c2d   Thumb Code    10  misc.o(.text)
    NVIC_Init                                0x08003c37   Thumb Code   102  misc.o(.text)
    NVIC_SetVectorTable                      0x08003c9d   Thumb Code    14  misc.o(.text)
    NVIC_SystemLPConfig                      0x08003cab   Thumb Code    34  misc.o(.text)
    SysTick_CLKSourceConfig                  0x08003ccd   Thumb Code    40  misc.o(.text)
    SPI_I2S_DeInit                           0x08003d09   Thumb Code    76  stm32f10x_spi.o(.text)
    SPI_Init                                 0x08003d55   Thumb Code    60  stm32f10x_spi.o(.text)
    I2S_Init                                 0x08003d91   Thumb Code   222  stm32f10x_spi.o(.text)
    SPI_StructInit                           0x08003e6f   Thumb Code    24  stm32f10x_spi.o(.text)
    I2S_StructInit                           0x08003e87   Thumb Code    20  stm32f10x_spi.o(.text)
    SPI_Cmd                                  0x08003e9b   Thumb Code    24  stm32f10x_spi.o(.text)
    I2S_Cmd                                  0x08003eb3   Thumb Code    24  stm32f10x_spi.o(.text)
    SPI_I2S_ITConfig                         0x08003ecb   Thumb Code    36  stm32f10x_spi.o(.text)
    SPI_I2S_DMACmd                           0x08003eef   Thumb Code    24  stm32f10x_spi.o(.text)
    SPI_I2S_SendData                         0x08003f07   Thumb Code     4  stm32f10x_spi.o(.text)
    SPI_I2S_ReceiveData                      0x08003f0b   Thumb Code     6  stm32f10x_spi.o(.text)
    SPI_NSSInternalSoftwareConfig            0x08003f11   Thumb Code    30  stm32f10x_spi.o(.text)
    SPI_SSOutputCmd                          0x08003f2f   Thumb Code    24  stm32f10x_spi.o(.text)
    SPI_DataSizeConfig                       0x08003f47   Thumb Code    18  stm32f10x_spi.o(.text)
    SPI_TransmitCRC                          0x08003f59   Thumb Code    10  stm32f10x_spi.o(.text)
    SPI_CalculateCRC                         0x08003f63   Thumb Code    24  stm32f10x_spi.o(.text)
    SPI_GetCRC                               0x08003f7b   Thumb Code    16  stm32f10x_spi.o(.text)
    SPI_GetCRCPolynomial                     0x08003f8b   Thumb Code     6  stm32f10x_spi.o(.text)
    SPI_BiDirectionalLineConfig              0x08003f91   Thumb Code    28  stm32f10x_spi.o(.text)
    SPI_I2S_GetFlagStatus                    0x08003fad   Thumb Code    18  stm32f10x_spi.o(.text)
    SPI_I2S_ClearFlag                        0x08003fbf   Thumb Code     6  stm32f10x_spi.o(.text)
    SPI_I2S_GetITStatus                      0x08003fc5   Thumb Code    52  stm32f10x_spi.o(.text)
    SPI_I2S_ClearITPendingBit                0x08003ff9   Thumb Code    20  stm32f10x_spi.o(.text)
    BKP_DeInit                               0x08004019   Thumb Code    16  stm32f10x_bkp.o(.text)
    BKP_TamperPinLevelConfig                 0x08004029   Thumb Code     6  stm32f10x_bkp.o(.text)
    BKP_TamperPinCmd                         0x0800402f   Thumb Code     8  stm32f10x_bkp.o(.text)
    BKP_ITConfig                             0x08004037   Thumb Code     8  stm32f10x_bkp.o(.text)
    BKP_RTCOutputConfig                      0x0800403f   Thumb Code    22  stm32f10x_bkp.o(.text)
    BKP_SetRTCCalibrationValue               0x08004055   Thumb Code    22  stm32f10x_bkp.o(.text)
    BKP_WriteBackupRegister                  0x0800406b   Thumb Code    12  stm32f10x_bkp.o(.text)
    BKP_ReadBackupRegister                   0x08004077   Thumb Code    14  stm32f10x_bkp.o(.text)
    BKP_GetFlagStatus                        0x08004085   Thumb Code    10  stm32f10x_bkp.o(.text)
    BKP_ClearFlag                            0x0800408f   Thumb Code    18  stm32f10x_bkp.o(.text)
    BKP_GetITStatus                          0x080040a1   Thumb Code    10  stm32f10x_bkp.o(.text)
    BKP_ClearITPendingBit                    0x080040ab   Thumb Code    18  stm32f10x_bkp.o(.text)
    RTC_ITConfig                             0x080040c5   Thumb Code    30  stm32f10x_rtc.o(.text)
    RTC_EnterConfigMode                      0x080040e3   Thumb Code    18  stm32f10x_rtc.o(.text)
    RTC_ExitConfigMode                       0x080040f5   Thumb Code    20  stm32f10x_rtc.o(.text)
    RTC_GetCounter                           0x08004109   Thumb Code    18  stm32f10x_rtc.o(.text)
    RTC_SetCounter                           0x0800411b   Thumb Code    26  stm32f10x_rtc.o(.text)
    RTC_SetPrescaler                         0x08004135   Thumb Code    28  stm32f10x_rtc.o(.text)
    RTC_SetAlarm                             0x08004151   Thumb Code    26  stm32f10x_rtc.o(.text)
    RTC_GetDivider                           0x0800416b   Thumb Code    22  stm32f10x_rtc.o(.text)
    RTC_WaitForLastTask                      0x08004181   Thumb Code    16  stm32f10x_rtc.o(.text)
    RTC_WaitForSynchro                       0x08004191   Thumb Code    34  stm32f10x_rtc.o(.text)
    RTC_GetFlagStatus                        0x080041b3   Thumb Code    22  stm32f10x_rtc.o(.text)
    RTC_ClearFlag                            0x080041c9   Thumb Code    20  stm32f10x_rtc.o(.text)
    RTC_GetITStatus                          0x080041dd   Thumb Code    32  stm32f10x_rtc.o(.text)
    RTC_ClearITPendingBit                    0x080041fd   Thumb Code    20  stm32f10x_rtc.o(.text)
    PWR_DeInit                               0x08004215   Thumb Code    22  stm32f10x_pwr.o(.text)
    PWR_BackupAccessCmd                      0x0800422b   Thumb Code     6  stm32f10x_pwr.o(.text)
    PWR_PVDCmd                               0x08004231   Thumb Code     6  stm32f10x_pwr.o(.text)
    PWR_PVDLevelConfig                       0x08004237   Thumb Code    18  stm32f10x_pwr.o(.text)
    PWR_WakeUpPinCmd                         0x08004249   Thumb Code     6  stm32f10x_pwr.o(.text)
    PWR_EnterSTOPMode                        0x0800424f   Thumb Code    54  stm32f10x_pwr.o(.text)
    PWR_EnterSTANDBYMode                     0x08004285   Thumb Code    42  stm32f10x_pwr.o(.text)
    PWR_GetFlagStatus                        0x080042af   Thumb Code    20  stm32f10x_pwr.o(.text)
    PWR_ClearFlag                            0x080042c3   Thumb Code    14  stm32f10x_pwr.o(.text)
    DMA_DeInit                               0x080042e1   Thumb Code   324  stm32f10x_dma.o(.text)
    DMA_Init                                 0x08004425   Thumb Code    60  stm32f10x_dma.o(.text)
    DMA_StructInit                           0x08004461   Thumb Code    26  stm32f10x_dma.o(.text)
    DMA_Cmd                                  0x0800447b   Thumb Code    24  stm32f10x_dma.o(.text)
    DMA_ITConfig                             0x08004493   Thumb Code    18  stm32f10x_dma.o(.text)
    DMA_SetCurrDataCounter                   0x080044a5   Thumb Code     4  stm32f10x_dma.o(.text)
    DMA_GetCurrDataCounter                   0x080044a9   Thumb Code     8  stm32f10x_dma.o(.text)
    DMA_GetFlagStatus                        0x080044b1   Thumb Code    38  stm32f10x_dma.o(.text)
    DMA_ClearFlag                            0x080044d7   Thumb Code    22  stm32f10x_dma.o(.text)
    DMA_GetITStatus                          0x080044ed   Thumb Code    38  stm32f10x_dma.o(.text)
    DMA_ClearITPendingBit                    0x08004513   Thumb Code    22  stm32f10x_dma.o(.text)
    OS_TaskStatStkChk                        0x08004531   Thumb Code    54  os_core.o(.text)
    OS_TaskStat                              0x08004567   Thumb Code   116  os_core.o(.text)
    OS_TaskIdle                              0x0800460f   Thumb Code    34  os_core.o(.text)
    OS_MemClr                                0x08004665   Thumb Code    18  os_core.o(.text)
    OSInit                                   0x08004783   Thumb Code    44  os_core.o(.text)
    OSIntEnter                               0x080047af   Thumb Code    28  os_core.o(.text)
    OSIntExit                                0x080047e5   Thumb Code   112  os_core.o(.text)
    OSSchedLock                              0x08004855   Thumb Code    50  os_core.o(.text)
    OS_Sched                                 0x08004887   Thumb Code    88  os_core.o(.text)
    OSSchedUnlock                            0x080048df   Thumb Code   238  os_core.o(.text)
    OSStart                                  0x080049cd   Thumb Code    48  os_core.o(.text)
    OSStatInit                               0x080049fd   Thumb Code    62  os_core.o(.text)
    OSTimeTick                               0x08004a3b   Thumb Code   218  os_core.o(.text)
    OSVersion                                0x08004b15   Thumb Code     6  os_core.o(.text)
    OS_Dummy                                 0x08004b1b   Thumb Code     2  os_core.o(.text)
    OS_EventTaskRemove                       0x08004b1d   Thumb Code    50  os_core.o(.text)
    OS_EventTaskRdy                          0x08004b4f   Thumb Code   124  os_core.o(.text)
    OS_EventTaskWait                         0x08004bcb   Thumb Code   120  os_core.o(.text)
    OS_EventWaitListInit                     0x08004c43   Thumb Code    28  os_core.o(.text)
    OS_MemCopy                               0x08004c5f   Thumb Code    20  os_core.o(.text)
    OS_StrLen                                0x08004c73   Thumb Code    20  os_core.o(.text)
    OS_TCBInit                               0x08004c87   Thumb Code   362  os_core.o(.text)
    OSFlagAccept                             0x08004df1   Thumb Code   268  os_flag.o(.text)
    OSFlagCreate                             0x08004efd   Thumb Code    86  os_flag.o(.text)
    OS_FlagUnlink                            0x08004f53   Thumb Code    36  os_flag.o(.text)
    OSFlagDel                                0x08004fd7   Thumb Code   214  os_flag.o(.text)
    OSFlagNameGet                            0x080050ad   Thumb Code    80  os_flag.o(.text)
    OSFlagNameSet                            0x080050fd   Thumb Code    66  os_flag.o(.text)
    OSFlagPend                               0x080051e7   Thumb Code   636  os_flag.o(.text)
    OSFlagPendGetFlagsRdy                    0x08005463   Thumb Code    26  os_flag.o(.text)
    OSFlagPost                               0x0800547d   Thumb Code   324  os_flag.o(.text)
    OSFlagQuery                              0x080055c1   Thumb Code    48  os_flag.o(.text)
    OS_FlagInit                              0x080055f1   Thumb Code    78  os_flag.o(.text)
    OSQAccept                                0x0800564d   Thumb Code    88  os_q.o(.text)
    OSQCreate                                0x080056a5   Thumb Code   140  os_q.o(.text)
    OSQDel                                   0x08005731   Thumb Code   236  os_q.o(.text)
    OSQFlush                                 0x0800581d   Thumb Code    36  os_q.o(.text)
    OSQPend                                  0x08005841   Thumb Code   272  os_q.o(.text)
    OSQPendAbort                             0x08005951   Thumb Code   128  os_q.o(.text)
    OSQPost                                  0x080059d1   Thumb Code   114  os_q.o(.text)
    OSQPostFront                             0x08005a43   Thumb Code   136  os_q.o(.text)
    OSQPostOpt                               0x08005acb   Thumb Code   182  os_q.o(.text)
    OSQQuery                                 0x08005b81   Thumb Code    98  os_q.o(.text)
    OS_QInit                                 0x08005be3   Thumb Code    72  os_q.o(.text)
    OSTaskChangePrio                         0x08005c35   Thumb Code   326  os_task.o(.text)
    OSTaskCreate                             0x08005d7b   Thumb Code   148  os_task.o(.text)
    OS_TaskStkClr                            0x08005e0f   Thumb Code    26  os_task.o(.text)
    OSTaskCreateExt                          0x08005e29   Thumb Code   170  os_task.o(.text)
    OSTaskDel                                0x08005ed3   Thumb Code   302  os_task.o(.text)
    OSTaskDelReq                             0x08006001   Thumb Code   146  os_task.o(.text)
    OSTaskNameGet                            0x08006093   Thumb Code   114  os_task.o(.text)
    OSTaskNameSet                            0x08006105   Thumb Code    98  os_task.o(.text)
    OSTaskResume                             0x08006167   Thumb Code   160  os_task.o(.text)
    OSTaskStkChk                             0x08006207   Thumb Code   132  os_task.o(.text)
    OSTaskSuspend                            0x0800628b   Thumb Code   160  os_task.o(.text)
    OSTaskQuery                              0x0800632b   Thumb Code    82  os_task.o(.text)
    OSTaskRegGet                             0x0800637d   Thumb Code    60  os_task.o(.text)
    OSTaskRegSet                             0x080063b9   Thumb Code    62  os_task.o(.text)
    OS_TaskReturn                            0x080063f7   Thumb Code    18  os_task.o(.text)
    OSTimeDly                                0x08006421   Thumb Code   108  os_time.o(.text)
    OSTimeDlyHMSM                            0x0800648d   Thumb Code    86  os_time.o(.text)
    OSTimeDlyResume                          0x080064e3   Thumb Code   176  os_time.o(.text)
    OSTimeGet                                0x08006593   Thumb Code    24  os_time.o(.text)
    OSTimeSet                                0x080065ab   Thumb Code    24  os_time.o(.text)
    OSInitHookBegin                          0x080065e1   Thumb Code     2  os_cpu_c.o(.text)
    OSInitHookEnd                            0x080065e3   Thumb Code     2  os_cpu_c.o(.text)
    OSTaskCreateHook                         0x080065e5   Thumb Code     2  os_cpu_c.o(.text)
    OSTaskDelHook                            0x080065e7   Thumb Code     2  os_cpu_c.o(.text)
    OSTaskIdleHook                           0x080065e9   Thumb Code     2  os_cpu_c.o(.text)
    OSTaskStatHook                           0x080065eb   Thumb Code     2  os_cpu_c.o(.text)
    OSTaskStkInit                            0x080065ed   Thumb Code   154  os_cpu_c.o(.text)
    OSTaskSwHook                             0x08006687   Thumb Code     2  os_cpu_c.o(.text)
    OSTCBInitHook                            0x08006689   Thumb Code     2  os_cpu_c.o(.text)
    OSTimeTickHook                           0x0800668b   Thumb Code     2  os_cpu_c.o(.text)
    OSTaskReturnHook                         0x0800668d   Thumb Code     2  os_cpu_c.o(.text)
    OS_CPU_SR_Save                           0x08006691   Thumb Code     0  os_cpu_a.o(.text)
    OS_CPU_SR_Restore                        0x08006699   Thumb Code     0  os_cpu_a.o(.text)
    OSStartHighRdy                           0x0800669f   Thumb Code     0  os_cpu_a.o(.text)
    OSCtxSw                                  0x080066c1   Thumb Code     0  os_cpu_a.o(.text)
    OSIntCtxSw                               0x080066cf   Thumb Code     0  os_cpu_a.o(.text)
    PendSV_Handler                           0x080066df   Thumb Code     0  os_cpu_a.o(.text)
    mymemcpy                                 0x08006745   Thumb Code    26  malloc.o(.text)
    mymemset                                 0x0800675f   Thumb Code    20  malloc.o(.text)
    mem_init                                 0x08006773   Thumb Code    38  malloc.o(.text)
    mem_perused                              0x08006799   Thumb Code    42  malloc.o(.text)
    mem_malloc                               0x080067c3   Thumb Code   116  malloc.o(.text)
    mem_free                                 0x08006837   Thumb Code    66  malloc.o(.text)
    myfree                                   0x08006879   Thumb Code    24  malloc.o(.text)
    mymalloc                                 0x08006891   Thumb Code    26  malloc.o(.text)
    myrealloc                                0x080068ab   Thumb Code    48  malloc.o(.text)
    exfuns_init                              0x080068e1   Thumb Code   100  exfuns.o(.text)
    char_upper                               0x08006945   Thumb Code    26  exfuns.o(.text)
    f_typetell                               0x0800695f   Thumb Code   188  exfuns.o(.text)
    exf_getfree                              0x08006a1b   Thumb Code    74  exfuns.o(.text)
    clust2sect                               0x08006c25   Thumb Code    26  ff.o(.text)
    get_fat                                  0x08006c3f   Thumb Code   232  ff.o(.text)
    put_fat                                  0x08006d27   Thumb Code   310  ff.o(.text)
    f_mount                                  0x0800803b   Thumb Code    86  ff.o(.text)
    f_open                                   0x08008091   Thumb Code   380  ff.o(.text)
    f_read                                   0x0800820d   Thumb Code   446  ff.o(.text)
    f_write                                  0x080083cb   Thumb Code   496  ff.o(.text)
    f_sync                                   0x080085bb   Thumb Code   174  ff.o(.text)
    f_close                                  0x08008669   Thumb Code    32  ff.o(.text)
    f_lseek                                  0x08008689   Thumb Code   652  ff.o(.text)
    f_opendir                                0x08008915   Thumb Code   136  ff.o(.text)
    f_closedir                               0x0800899d   Thumb Code    22  ff.o(.text)
    f_readdir                                0x080089b3   Thumb Code   114  ff.o(.text)
    f_stat                                   0x08008a25   Thumb Code    84  ff.o(.text)
    f_getfree                                0x08008a79   Thumb Code   258  ff.o(.text)
    f_truncate                               0x08008b7b   Thumb Code   184  ff.o(.text)
    f_unlink                                 0x08008c33   Thumb Code   194  ff.o(.text)
    f_mkdir                                  0x08008cf5   Thumb Code   380  ff.o(.text)
    f_chmod                                  0x08008e71   Thumb Code   116  ff.o(.text)
    f_utime                                  0x08008ee5   Thumb Code   110  ff.o(.text)
    f_rename                                 0x08008f53   Thumb Code   314  ff.o(.text)
    f_getlabel                               0x0800908d   Thumb Code   190  ff.o(.text)
    f_setlabel                               0x0800914b   Thumb Code   470  ff.o(.text)
    f_mkfs                                   0x08009321   Thumb Code  1570  ff.o(.text)
    f_gets                                   0x08009943   Thumb Code    82  ff.o(.text)
    f_putc                                   0x080099d9   Thumb Code    64  ff.o(.text)
    f_puts                                   0x08009a19   Thumb Code    74  ff.o(.text)
    f_printf                                 0x08009a63   Thumb Code   672  ff.o(.text)
    disk_initialize                          0x08009d05   Thumb Code    88  diskio.o(.text)
    disk_status                              0x08009d5d   Thumb Code     6  diskio.o(.text)
    disk_read                                0x08009d63   Thumb Code   118  diskio.o(.text)
    disk_write                               0x08009dd9   Thumb Code    98  diskio.o(.text)
    disk_ioctl                               0x08009e3b   Thumb Code   154  diskio.o(.text)
    get_fattime                              0x08009ed5   Thumb Code     4  diskio.o(.text)
    ff_memalloc                              0x08009ed9   Thumb Code    12  diskio.o(.text)
    ff_memfree                               0x08009ee5   Thumb Code    12  diskio.o(.text)
    ff_convert                               0x08009efd   Thumb Code   116  cc936.o(.text)
    ff_wtoupper                              0x08009f71   Thumb Code    46  cc936.o(.text)
    EzUI_BodyReadVarCommand                  0x08009fb1   Thumb Code    22  ezui_ctrl.o(.text)
    EzUI_BodySetVar_Byte                     0x08009fc7   Thumb Code    28  ezui_ctrl.o(.text)
    EzUI_BodySetVar_Word                     0x08009fe3   Thumb Code    30  ezui_ctrl.o(.text)
    EzUI_BodySetVar_Int                      0x0800a001   Thumb Code    38  ezui_ctrl.o(.text)
    EzUI_BodySetVar_Float                    0x0800a027   Thumb Code    40  ezui_ctrl.o(.text)
    EzUI_BodySetVar_BufLen                   0x0800a04f   Thumb Code    54  ezui_ctrl.o(.text)
    EzUI_BodySetVar_Buf                      0x0800a085   Thumb Code    56  ezui_ctrl.o(.text)
    EzUI_NumberEdit_SetVarInt                0x0800a0bd   Thumb Code    16  ezui_ctrl.o(.text)
    EzUI_NumberEdit_SetVarFloat              0x0800a0cd   Thumb Code    16  ezui_ctrl.o(.text)
    EzUI_NumberEdit_ReadVarInt               0x0800a0dd   Thumb Code    96  ezui_ctrl.o(.text)
    EzUI_NumberEdit_ReadVarFloat             0x0800a13d   Thumb Code    96  ezui_ctrl.o(.text)
    EzUI_StringEdit_SetString                0x0800a19d   Thumb Code    16  ezui_ctrl.o(.text)
    EzUI_StringEdit_ReadString               0x0800a1ad   Thumb Code   132  ezui_ctrl.o(.text)
    EzUI_Combox_SetSel                       0x0800a231   Thumb Code    16  ezui_ctrl.o(.text)
    EzUI_Combox_ReadSel                      0x0800a241   Thumb Code    96  ezui_ctrl.o(.text)
    EzUI_BitmapButton_SetStatus              0x0800a2a1   Thumb Code    16  ezui_ctrl.o(.text)
    EzUI_BitmapButton_ReadStatus             0x0800a2b1   Thumb Code    96  ezui_ctrl.o(.text)
    EzUI_ProcessCtrl_SetVar                  0x0800a311   Thumb Code    16  ezui_ctrl.o(.text)
    EzUI_ProcessCtrl_ReadVar                 0x0800a321   Thumb Code   100  ezui_ctrl.o(.text)
    EzUI_WaveFormCtrl_InserVar               0x0800a385   Thumb Code    74  ezui_ctrl.o(.text)
    EzUI_WaveFormCtrl_ReDrawWave             0x0800a3cf   Thumb Code    26  ezui_ctrl.o(.text)
    EzUI_GifCtrl_SetStatus                   0x0800a3e9   Thumb Code    16  ezui_ctrl.o(.text)
    EzUI_GifCtrl_ReadVar                     0x0800a3f9   Thumb Code    96  ezui_ctrl.o(.text)
    EzUI_GetNowActiveGui                     0x0800a459   Thumb Code    58  ezui_ctrl.o(.text)
    EzUI_SetNowActiveGui                     0x0800a493   Thumb Code    22  ezui_ctrl.o(.text)
    string_to_float                          0x0800a4b1   Thumb Code   274  util.o(.text)
    my_itoa                                  0x0800a5c3   Thumb Code   318  util.o(.text)
    lcdopt_show_del_goods_list               0x0800a729   Thumb Code    94  lcdopt.o(.text)
    lcdopt_show_choose_goods_list            0x0800a787   Thumb Code    94  lcdopt.o(.text)
    lcdopt_clear_del_goods_list              0x0800a7e5   Thumb Code   100  lcdopt.o(.text)
    lcdopt_clear_choose_goods_list           0x0800a849   Thumb Code   100  lcdopt.o(.text)
    lcdopt_del_goods_flag_check              0x0800a8ad   Thumb Code    60  lcdopt.o(.text)
    lcdopt_choose_goods_flag_check           0x0800a8e9   Thumb Code    52  lcdopt.o(.text)
    lcdopt_click_bootui_icon_work            0x0800a91d   Thumb Code    44  lcdopt.o(.text)
    lcdopt_click_bootui_icon_admin           0x0800a949   Thumb Code     8  lcdopt.o(.text)
    lcdopt_click_work_button_goods_choose    0x0800a951   Thumb Code    18  lcdopt.o(.text)
    lcdopt_click_work_button_print           0x0800a963   Thumb Code    86  lcdopt.o(.text)
    lcdopt_click_work_button_flay            0x0800a9b9   Thumb Code    18  lcdopt.o(.text)
    lcdopt_click_work_button_zero            0x0800a9cb   Thumb Code    24  lcdopt.o(.text)
    lcdopt_click_work_button_total           0x0800a9e3   Thumb Code     2  lcdopt.o(.text)
    lcdopt_click_work_button_quit            0x0800a9e5   Thumb Code    40  lcdopt.o(.text)
    lcdopt_click_work_frame_print_sure       0x0800aa0d   Thumb Code    68  lcdopt.o(.text)
    lcdopt_click_goods_opt_button_choose     0x0800aa51   Thumb Code   126  lcdopt.o(.text)
    lcdopt_click_goods_opt_button_return     0x0800aacf   Thumb Code    44  lcdopt.o(.text)
    lcdopt_click_admin_button_sure           0x0800aafb   Thumb Code   144  lcdopt.o(.text)
    lcdopt_click_admin_button_return         0x0800ab8b   Thumb Code    28  lcdopt.o(.text)
    lcdopt_click_boot_admin_ui_icon_add_card 0x0800aba7   Thumb Code    62  lcdopt.o(.text)
    lcdopt_click_boot_admin_ui_icon_del_card 0x0800abe5   Thumb Code     8  lcdopt.o(.text)
    lcdopt_click_boot_admin_ui_icon_goods    0x0800abed   Thumb Code     8  lcdopt.o(.text)
    lcdopt_click_boot_admin_ui_icon_setting  0x0800abf5   Thumb Code   102  lcdopt.o(.text)
    lcdopt_click_boot_admin_ui_icon_root_setting 0x0800ac5b   Thumb Code    68  lcdopt.o(.text)
    lcdopt_click_boot_admin_ui_icon_pwd_manage 0x0800ac9f   Thumb Code     8  lcdopt.o(.text)
    lcdopt_click_boot_admin_ui_icon_return   0x0800aca7   Thumb Code     8  lcdopt.o(.text)
    lcdopt_click_add_card_button_add         0x0800acaf   Thumb Code   138  lcdopt.o(.text)
    lcdopt_click_add_card_button_readd       0x0800ad39   Thumb Code   140  lcdopt.o(.text)
    lcdopt_click_add_card_button_return      0x0800adc5   Thumb Code    34  lcdopt.o(.text)
    lcdopt_click_add_card_control_worker_num 0x0800ade7   Thumb Code   106  lcdopt.o(.text)
    lcdopt_click_del_card_control_worker_num 0x0800ae51   Thumb Code   138  lcdopt.o(.text)
    lcdopt_click_del_card_button_del         0x0800aedb   Thumb Code    84  lcdopt.o(.text)
    lcdopt_click_del_card_button_return      0x0800af2f   Thumb Code    42  lcdopt.o(.text)
    lcdopt_click_goods_button_sure           0x0800af59   Thumb Code    84  lcdopt.o(.text)
    lcdopt_click_goods_button_cancle         0x0800afad   Thumb Code    40  lcdopt.o(.text)
    lcdopt_click_goods_button_find           0x0800afd5   Thumb Code    36  lcdopt.o(.text)
    lcdopt_click_goods_button_return         0x0800aff9   Thumb Code    26  lcdopt.o(.text)
    lcdopt_click_goods_del_button_del        0x0800b013   Thumb Code   164  lcdopt.o(.text)
    lcdopt_click_goods_del_button_return     0x0800b0b7   Thumb Code    44  lcdopt.o(.text)
    lcdopt_click_setting_button_sure         0x0800b0e3   Thumb Code   160  lcdopt.o(.text)
    lcdopt_click_setting_button_restore      0x0800b183   Thumb Code    18  lcdopt.o(.text)
    lcdopt_click_setting_button_return       0x0800b195   Thumb Code     8  lcdopt.o(.text)
    lcdopt_click_root_auth_button_sure       0x0800b19d   Thumb Code   110  lcdopt.o(.text)
    lcdopt_click_root_auth_button_return     0x0800b20b   Thumb Code    24  lcdopt.o(.text)
    lcdopt_click_root_opt_button_sure        0x0800b223   Thumb Code    28  lcdopt.o(.text)
    lcdopt_click_root_opt_button_list_export 0x0800b23f   Thumb Code    76  lcdopt.o(.text)
    lcdopt_click_root_opt_button_bill_export 0x0800b28b   Thumb Code    76  lcdopt.o(.text)
    lcdopt_click_root_opt_button_quit        0x0800b2d7   Thumb Code     8  lcdopt.o(.text)
    lcdopt_click_pwd_manage_button_sure      0x0800b2df   Thumb Code   310  lcdopt.o(.text)
    lcdopt_click_pwd_manage_button_return    0x0800b415   Thumb Code    42  lcdopt.o(.text)
    lcdopt_printf_card_id                    0x0800b43f   Thumb Code   230  lcdopt.o(.text)
    lcdopt_printf_weight                     0x0800b525   Thumb Code    80  lcdopt.o(.text)
    lcdopt_main                              0x0800b575   Thumb Code    68  lcdopt.o(.text)
    lcdopt_init                              0x0800b5b9   Thumb Code    62  lcdopt.o(.text)
    mf_copy                                  0x0800b601   Thumb Code   218  fileopt.o(.text)
    fileopt_get_current_price                0x0800b75f   Thumb Code     8  fileopt.o(.text)
    fileopt_get_current_goods                0x0800b767   Thumb Code    20  fileopt.o(.text)
    fileopt_set_current_price                0x0800b77b   Thumb Code   116  fileopt.o(.text)
    fileopt_file_init                        0x0800b7ef   Thumb Code    92  fileopt.o(.text)
    fileope_goods_list_init                  0x0800b84b   Thumb Code   250  fileopt.o(.text)
    fileopt_get_goods_list                   0x0800b945   Thumb Code     8  fileopt.o(.text)
    fileopt_init                             0x0800b94d   Thumb Code   642  fileopt.o(.text)
    fileopt_get_work_id                      0x0800bbcf   Thumb Code   114  fileopt.o(.text)
    fileopt_find_worker                      0x0800bc41   Thumb Code    86  fileopt.o(.text)
    fileopt_create_card                      0x0800bc97   Thumb Code   454  fileopt.o(.text)
    fileopt_cnt_worker_pos                   0x0800be5d   Thumb Code   214  fileopt.o(.text)
    fileopt_update_msg                       0x0800bf33   Thumb Code   382  fileopt.o(.text)
    fileopt_update_worker_product_msg        0x0800c0b1   Thumb Code   270  fileopt.o(.text)
    fileopt_get_1st_2nd_msg                  0x0800c1bf   Thumb Code   228  fileopt.o(.text)
    fileopt_add_worker_msg                   0x0800c2a3   Thumb Code   782  fileopt.o(.text)
    fileopt_find_worker_msg_by_workid        0x0800c5b1   Thumb Code   274  fileopt.o(.text)
    fileopt_find_worker_msg_by_cardid        0x0800c6c3   Thumb Code   290  fileopt.o(.text)
    fileopt_reapply_card_by_work_id          0x0800c8f1   Thumb Code   358  fileopt.o(.text)
    fileopt_del_worker_msg                   0x0800ca57   Thumb Code   308  fileopt.o(.text)
    fileopt_read_total_msg                   0x0800cb8b   Thumb Code   398  fileopt.o(.text)
    fileopt_clear_lastest_data               0x0800cd19   Thumb Code   140  fileopt.o(.text)
    fileopt_set_water_rate                   0x0800cda5   Thumb Code   118  fileopt.o(.text)
    fileopt_get_water_rate                   0x0800ce1b   Thumb Code    92  fileopt.o(.text)
    fileopt_add_goods                        0x0800ce77   Thumb Code   404  fileopt.o(.text)
    fileopt_del_goods                        0x0800d00b   Thumb Code   290  fileopt.o(.text)
    fileopt_get_goods_price                  0x0800d12d   Thumb Code    88  fileopt.o(.text)
    fileopt_set_passwd                       0x0800d185   Thumb Code   152  fileopt.o(.text)
    fileopt_get_passwd                       0x0800d21d   Thumb Code   182  fileopt.o(.text)
    fileopt_set_weight_unit                  0x0800d2d3   Thumb Code   126  fileopt.o(.text)
    fileopt_get_weight_unit                  0x0800d351   Thumb Code    82  fileopt.o(.text)
    fileopt_write_bill_to_udev               0x0800d3a3   Thumb Code   462  fileopt.o(.text)
    fileopt_write_list_to_udev               0x0800d571   Thumb Code   342  fileopt.o(.text)
    fileopt_copy_sd_to_flash                 0x0800d6c7   Thumb Code    34  fileopt.o(.text)
    fileopt_copy_flash_to_sd                 0x0800d6e9   Thumb Code     2  fileopt.o(.text)
    mFlushBufferToDisk                       0x0800d7b1   Thumb Code   288  ch376_api.o(.text)
    InitUSB                                  0x0800d8d1   Thumb Code   156  ch376_api.o(.text)
    OpenUSBFile                              0x0800d96d   Thumb Code   182  ch376_api.o(.text)
    CloseUSBFile                             0x0800da23   Thumb Code   100  ch376_api.o(.text)
    WriteDataBufToUSB                        0x0800da87   Thumb Code    76  ch376_api.o(.text)
    WaitTakeOutUSB                           0x0800dad3   Thumb Code    28  ch376_api.o(.text)
    __use_no_semihosting                     0x0800db0d   Thumb Code     2  use_no_semi_2.o(.text)
    __2sprintf                               0x0800db11   Thumb Code    38  __2sprintf.o(.text)
    _printf_pre_padding                      0x0800db3d   Thumb Code    46  _printf_pad.o(.text)
    _printf_post_padding                     0x0800db6b   Thumb Code    36  _printf_pad.o(.text)
    _printf_str                              0x0800db8f   Thumb Code    82  _printf_str.o(.text)
    _printf_int_dec                          0x0800dbe1   Thumb Code   102  _printf_dec.o(.text)
    __printf                                 0x0800dc59   Thumb Code   270  __printf_wp.o(.text)
    atoi                                     0x0800dd67   Thumb Code    26  atoi.o(.text)
    strtok                                   0x0800dd81   Thumb Code     6  strtok.o(.text)
    strstr                                   0x0800dd8d   Thumb Code    36  strstr.o(.text)
    strcpy                                   0x0800ddb1   Thumb Code    72  strcpy.o(.text)
    strlen                                   0x0800ddf9   Thumb Code    62  strlen.o(.text)
    strncmp                                  0x0800de37   Thumb Code   150  strncmp.o(.text)
    strcat                                   0x0800decd   Thumb Code    24  strcat.o(.text)
    __aeabi_memcpy                           0x0800dee5   Thumb Code     0  rt_memcpy_v6.o(.text)
    __rt_memcpy                              0x0800dee5   Thumb Code   138  rt_memcpy_v6.o(.text)
    _memcpy_lastbytes                        0x0800df4b   Thumb Code     0  rt_memcpy_v6.o(.text)
    __aeabi_memcpy4                          0x0800df6f   Thumb Code     0  rt_memcpy_w.o(.text)
    __aeabi_memcpy8                          0x0800df6f   Thumb Code     0  rt_memcpy_w.o(.text)
    __rt_memcpy_w                            0x0800df6f   Thumb Code   100  rt_memcpy_w.o(.text)
    _memcpy_lastbytes_aligned                0x0800dfb7   Thumb Code     0  rt_memcpy_w.o(.text)
    __aeabi_memclr                           0x0800dfd3   Thumb Code     0  rt_memclr.o(.text)
    __rt_memclr                              0x0800dfd3   Thumb Code    68  rt_memclr.o(.text)
    _memset                                  0x0800dfd7   Thumb Code     0  rt_memclr.o(.text)
    __aeabi_memclr4                          0x0800e017   Thumb Code     0  rt_memclr_w.o(.text)
    __aeabi_memclr8                          0x0800e017   Thumb Code     0  rt_memclr_w.o(.text)
    __rt_memclr_w                            0x0800e017   Thumb Code    78  rt_memclr_w.o(.text)
    _memset_w                                0x0800e01b   Thumb Code     0  rt_memclr_w.o(.text)
    strcmp                                   0x0800e065   Thumb Code   128  strcmpv7m.o(.text)
    __use_two_region_memory                  0x0800e0e5   Thumb Code     2  heapauxi.o(.text)
    __rt_heap_escrow$2region                 0x0800e0e7   Thumb Code     2  heapauxi.o(.text)
    __rt_heap_expand$2region                 0x0800e0e9   Thumb Code     2  heapauxi.o(.text)
    __I$use$semihosting                      0x0800e0eb   Thumb Code     0  use_no_semi.o(.text)
    __use_no_semihosting_swi                 0x0800e0eb   Thumb Code     2  use_no_semi.o(.text)
    __aeabi_errno_addr                       0x0800e0ed   Thumb Code     8  rt_errno_addr_intlibspace.o(.text)
    __errno$intlibspace                      0x0800e0ed   Thumb Code     0  rt_errno_addr_intlibspace.o(.text)
    __rt_errno_addr$intlibspace              0x0800e0ed   Thumb Code     0  rt_errno_addr_intlibspace.o(.text)
    _printf_int_common                       0x0800e0f5   Thumb Code   184  _printf_intcommon.o(.text)
    __lib_sel_fp_printf                      0x0800e1ad   Thumb Code     2  _printf_fp_dec.o(.text)
    _printf_fp_dec_real                      0x0800e35b   Thumb Code   626  _printf_fp_dec.o(.text)
    _printf_char_common                      0x0800e5d7   Thumb Code    32  _printf_char_common.o(.text)
    _sputc                                   0x0800e5fd   Thumb Code    10  _sputc.o(.text)
    _printf_cs_common                        0x0800e607   Thumb Code    20  _printf_char.o(.text)
    _printf_char                             0x0800e61b   Thumb Code    16  _printf_char.o(.text)
    _printf_string                           0x0800e62b   Thumb Code     8  _printf_char.o(.text)
    strtol                                   0x0800e633   Thumb Code   112  strtol.o(.text)
    __strtok_internal                        0x0800e6a5   Thumb Code    64  strtok_int.o(.text)
    __user_libspace                          0x0800e6e9   Thumb Code     8  libspace.o(.text)
    __user_perproc_libspace                  0x0800e6e9   Thumb Code     0  libspace.o(.text)
    __user_perthread_libspace                0x0800e6e9   Thumb Code     0  libspace.o(.text)
    __rt_ctype_table                         0x0800e6f1   Thumb Code    16  rt_ctype_table.o(.text)
    __rt_locale                              0x0800e701   Thumb Code     8  rt_locale_intlibspace.o(.text)
    _ll_udiv10                               0x0800e709   Thumb Code   138  lludiv10.o(.text)
    _printf_fp_infnan                        0x0800e795   Thumb Code   112  _printf_fp_infnan.o(.text)
    _strtoul                                 0x0800e815   Thumb Code   158  _strtoul.o(.text)
    _btod_etento                             0x0800e8b5   Thumb Code   222  bigflt0.o(.text)
    strcspn                                  0x0800e999   Thumb Code    32  strcspn.o(.text)
    strspn                                   0x0800e9b9   Thumb Code    28  strspn.o(.text)
    __user_setup_stackheap                   0x0800e9d5   Thumb Code    74  sys_stackheap_outer.o(.text)
    _chval                                   0x0800ea1f   Thumb Code    28  _chval.o(.text)
    exit                                     0x0800ea3b   Thumb Code    12  exit.o(.text)
    __rt_fp_status_addr                      0x0800ea49   Thumb Code     8  rt_fp_status_addr_intlibspace.o(.text)
    _btod_d2e                                0x0800ea51   Thumb Code    62  btod.o(CL$$btod_d2e)
    _d2e_denorm_low                          0x0800ea8f   Thumb Code    70  btod.o(CL$$btod_d2e_denorm_low)
    _d2e_norm_op1                            0x0800ead5   Thumb Code    96  btod.o(CL$$btod_d2e_norm_op1)
    __btod_div_common                        0x0800eb35   Thumb Code   696  btod.o(CL$$btod_div_common)
    _e2e                                     0x0800ee6d   Thumb Code   198  btod.o(CL$$btod_e2e)
    _btod_ediv                               0x0800ef33   Thumb Code    40  btod.o(CL$$btod_ediv)
    _btod_emul                               0x0800ef5b   Thumb Code    40  btod.o(CL$$btod_emul)
    __btod_mult_common                       0x0800ef83   Thumb Code   580  btod.o(CL$$btod_mult_common)
    __ARM_fpclassify                         0x0800f1c7   Thumb Code    40  fpclassify.o(i.__ARM_fpclassify)
    _is_digit                                0x0800f1ef   Thumb Code    14  __printf_wp.o(i._is_digit)
    _get_lc_numeric                          0x0800f1fd   Thumb Code    44  lc_numeric_c.o(locale$$code)
    _get_lc_ctype                            0x0800f229   Thumb Code    44  lc_ctype_c.o(locale$$code)
    __aeabi_d2f                              0x0800f255   Thumb Code     0  d2f.o(x$fpl$d2f)
    _d2f                                     0x0800f255   Thumb Code    98  d2f.o(x$fpl$d2f)
    __aeabi_dadd                             0x0800f2b9   Thumb Code     0  daddsub_clz.o(x$fpl$dadd)
    _dadd                                    0x0800f2b9   Thumb Code   332  daddsub_clz.o(x$fpl$dadd)
    __aeabi_dmul                             0x0800f409   Thumb Code     0  dmul.o(x$fpl$dmul)
    _dmul                                    0x0800f409   Thumb Code   332  dmul.o(x$fpl$dmul)
    __fpl_dnaninf                            0x0800f55d   Thumb Code   156  dnaninf.o(x$fpl$dnaninf)
    __fpl_dretinf                            0x0800f5f9   Thumb Code    12  dretinf.o(x$fpl$dretinf)
    __aeabi_dsub                             0x0800f605   Thumb Code     0  daddsub_clz.o(x$fpl$dsub)
    _dsub                                    0x0800f605   Thumb Code   464  daddsub_clz.o(x$fpl$dsub)
    __aeabi_f2d                              0x0800f7d9   Thumb Code     0  f2d.o(x$fpl$f2d)
    _f2d                                     0x0800f7d9   Thumb Code    86  f2d.o(x$fpl$f2d)
    __aeabi_fadd                             0x0800f831   Thumb Code     0  faddsub_clz.o(x$fpl$fadd)
    _fadd                                    0x0800f831   Thumb Code   196  faddsub_clz.o(x$fpl$fadd)
    __fpl_fcmp_Inf                           0x0800f8f5   Thumb Code    24  fcmpi.o(x$fpl$fcmpinf)
    __aeabi_fdiv                             0x0800f90d   Thumb Code     0  fdiv.o(x$fpl$fdiv)
    _fdiv                                    0x0800f90d   Thumb Code   384  fdiv.o(x$fpl$fdiv)
    __aeabi_cfcmpeq                          0x0800fa91   Thumb Code     0  feqf.o(x$fpl$feqf)
    _fcmpeq                                  0x0800fa91   Thumb Code   104  feqf.o(x$fpl$feqf)
    __aeabi_f2iz                             0x0800faf9   Thumb Code     0  ffix.o(x$fpl$ffix)
    _ffix                                    0x0800faf9   Thumb Code    54  ffix.o(x$fpl$ffix)
    __aeabi_i2f                              0x0800fb31   Thumb Code     0  fflt_clz.o(x$fpl$fflt)
    _fflt                                    0x0800fb31   Thumb Code    48  fflt_clz.o(x$fpl$fflt)
    __aeabi_ui2f                             0x0800fb61   Thumb Code     0  fflt_clz.o(x$fpl$ffltu)
    _ffltu                                   0x0800fb61   Thumb Code    38  fflt_clz.o(x$fpl$ffltu)
    __aeabi_cfcmple                          0x0800fb89   Thumb Code     0  fleqf.o(x$fpl$fleqf)
    _fcmple                                  0x0800fb89   Thumb Code   104  fleqf.o(x$fpl$fleqf)
    __fpl_fcmple_InfNaN                      0x0800fbdb   Thumb Code     0  fleqf.o(x$fpl$fleqf)
    __aeabi_fmul                             0x0800fbf1   Thumb Code     0  fmul.o(x$fpl$fmul)
    _fmul                                    0x0800fbf1   Thumb Code   258  fmul.o(x$fpl$fmul)
    __fpl_fnaninf                            0x0800fcf3   Thumb Code   140  fnaninf.o(x$fpl$fnaninf)
    _fp_init                                 0x0800fd7f   Thumb Code    14  fpinit.o(x$fpl$fpinit)
    __fplib_config_pureend_doubles           0x0800fd8b   Thumb Code     0  fpinit.o(x$fpl$fpinit)
    __fpl_fretinf                            0x0800fd8d   Thumb Code    10  fretinf.o(x$fpl$fretinf)
    __aeabi_frsub                            0x0800fd97   Thumb Code     0  faddsub_clz.o(x$fpl$frsb)
    _frsb                                    0x0800fd97   Thumb Code    20  faddsub_clz.o(x$fpl$frsb)
    __aeabi_fsub                             0x0800fdad   Thumb Code     0  faddsub_clz.o(x$fpl$fsub)
    _fsub                                    0x0800fdad   Thumb Code   234  faddsub_clz.o(x$fpl$fsub)
    _printf_fp_dec                           0x0800fe97   Thumb Code     4  printf1.o(x$fpl$printf1)
    __I$use$fp                               0x0800fe9b   Thumb Code     0  usenofp.o(x$fpl$usenofp)
    table_week                               0x0800fe9a   Data          12  rtc.o(.constdata)
    mon_table                                0x0800fea6   Data          12  rtc.o(.constdata)
    OSUnMapTbl                               0x0800feb2   Data         256  os_core.o(.constdata)
    Region$$Table$$Base                      0x0803ada8   Number         0  anon$$obj.o(Region$$Table)
    Region$$Table$$Limit                     0x0803adc8   Number         0  anon$$obj.o(Region$$Table)
    __ctype                                  0x0803adf1   Data           0  lc_ctype_c.o(locale$$data)
    SystemCoreClock                          0x20000000   Data           4  system_stm32f10x.o(.data)
    AHBPrescTable                            0x20000004   Data          16  system_stm32f10x.o(.data)
    SPI_FLASH_TYPE                           0x20000014   Data           2  flash.o(.data)
    SD_Type                                  0x20000016   Data           1  mmc_sd.o(.data)
    USART_RX_STA                             0x20000020   Data           2  usart.o(.data)
    UART_TX_Buffer                           0x20000022   Data         128  usart.o(.data)
    UART_TX_Status                           0x200000a2   Data           1  usart.o(.data)
    UART_Buffer_Top                          0x200000a4   Data           2  usart.o(.data)
    UART_Buffer_Bom                          0x200000a6   Data           2  usart.o(.data)
    m_UARTFIFO_PackedDatNum                  0x200000a8   Data           2  usart.o(.data)
    m_PackedDataNumber                       0x200000aa   Data           2  usart.o(.data)
    __stdout                                 0x200000ac   Data           4  usart.o(.data)
    OSCtxSwCtr                               0x200000c4   Data           4  os_core.o(.data)
    OSEventFreeList                          0x200000c8   Data           4  os_core.o(.data)
    OSFlagFreeList                           0x200000cc   Data           4  os_core.o(.data)
    OSCPUUsage                               0x200000d0   Data           1  os_core.o(.data)
    OSIdleCtrMax                             0x200000d4   Data           4  os_core.o(.data)
    OSIdleCtrRun                             0x200000d8   Data           4  os_core.o(.data)
    OSStatRdy                                0x200000dc   Data           1  os_core.o(.data)
    OSIntNesting                             0x200000dd   Data           1  os_core.o(.data)
    OSLockNesting                            0x200000de   Data           1  os_core.o(.data)
    OSPrioCur                                0x200000df   Data           1  os_core.o(.data)
    OSPrioHighRdy                            0x200000e0   Data           1  os_core.o(.data)
    OSRdyGrp                                 0x200000e1   Data           1  os_core.o(.data)
    OSRdyTbl                                 0x200000e2   Data           8  os_core.o(.data)
    OSRunning                                0x200000ea   Data           1  os_core.o(.data)
    OSTaskCtr                                0x200000eb   Data           1  os_core.o(.data)
    OSIdleCtr                                0x200000ec   Data           4  os_core.o(.data)
    OSTCBCur                                 0x200000f0   Data           4  os_core.o(.data)
    OSTCBFreeList                            0x200000f4   Data           4  os_core.o(.data)
    OSTCBHighRdy                             0x200000f8   Data           4  os_core.o(.data)
    OSTCBList                                0x200000fc   Data           4  os_core.o(.data)
    OSTickStepState                          0x20000100   Data           1  os_core.o(.data)
    OSQFreeList                              0x20000104   Data           4  os_core.o(.data)
    OSTime                                   0x20000108   Data           4  os_core.o(.data)
    mallco_dev                               0x2000010c   Data          20  malloc.o(.data)
    FILE_TYPE_TBL                            0x20000120   Data         312  exfuns.o(.data)
    fs                                       0x20000258   Data           8  exfuns.o(.data)
    file                                     0x20000260   Data           4  exfuns.o(.data)
    ftemp                                    0x20000264   Data           4  exfuns.o(.data)
    br                                       0x20000268   Data           4  exfuns.o(.data)
    bw                                       0x2000026c   Data           4  exfuns.o(.data)
    fatbuf                                   0x20000270   Data           4  exfuns.o(.data)
    FLASH_SECTOR_COUNT                       0x2000027e   Data           2  diskio.o(.data)
    opt_str                                  0x20000280   Data         352  lcdopt.o(.data)
    total                                    0x200003e0   Data           2  ch376_api.o(.data)
    SPI_InitStructure                        0x200008e8   Data          18  spi.o(.bss)
    SPI_FLASH_BUF                            0x200008fa   Data        4096  flash.o(.bss)
    calendar                                 0x200018fa   Data          10  rtc.o(.bss)
    USART_RX_BUF                             0x20001904   Data         200  usart.o(.bss)
    Send_Buffer                              0x200019cc   Data         128  usart.o(.bss)
    UART_RX_Buffer                           0x20001a4c   Data         512  usart.o(.bss)
    OSEventTbl                               0x20001c4c   Data         200  os_core.o(.bss)
    OSFlagTbl                                0x20001d14   Data          80  os_core.o(.bss)
    OSTaskStatStk                            0x20001d64   Data         512  os_core.o(.bss)
    OSTaskIdleStk                            0x20001f64   Data         512  os_core.o(.bss)
    OSTCBPrioTbl                             0x20002164   Data         256  os_core.o(.bss)
    OSTCBTbl                                 0x20002264   Data        1008  os_core.o(.bss)
    OSQTbl                                   0x20002654   Data         120  os_core.o(.bss)
    membase                                  0x200026cc   Data       43008  malloc.o(.bss)
    memmapbase                               0x2000cecc   Data        2688  malloc.o(.bss)
    lcdopt_mgr_str                           0x2000d94c   Data         100  lcdopt.o(.bss)
    current_path                             0x2000d9b0   Data          16  fileopt.o(.bss)
    old_msg                                  0x2000d9c0   Data          80  fileopt.o(.bss)
    FileDataBuf                              0x2000db24   Data        1024  ch376_api.o(.bss)
    __libspace_start                         0x2000df24   Data          96  libspace.o(.bss)
    __temporary_stack_top$libspace           0x2000df84   Data           0  libspace.o(.bss)



==============================================================================

Memory Map of the image

  Image Entry point : 0x08000131

  Load Region LR_IROM1 (Base: 0x08000000, Size: 0x0003b2dc, Max: 0x00080000, ABSOLUTE, COMPRESSED[0x0003b064])

    Execution Region ER_IROM1 (Base: 0x08000000, Size: 0x0003aef4, Max: 0x00080000, ABSOLUTE)

    Base Addr    Size         Type   Attr      Idx    E Section Name        Object

    0x08000000   0x00000130   Data   RO          424    RESET               startup_stm32f10x_hd.o
    0x08000130   0x00000008   Code   RO         1020  * !!!main             c_w.l(__main.o)
    0x08000138   0x00000034   Code   RO         1310    !!!scatter          c_w.l(__scatter.o)
    0x0800016c   0x0000005a   Code   RO         1308    !!dczerorl2         c_w.l(__dczerorl2.o)
    0x080001c6   0x00000002   PAD
    0x080001c8   0x0000001c   Code   RO         1312    !!handler_zi        c_w.l(__scatter_zi.o)
    0x080001e4   0x00000000   Code   RO          992    .ARM.Collect$$_printf_percent$$00000000  c_w.l(_printf_percent.o)
    0x080001e4   0x00000006   Code   RO          991    .ARM.Collect$$_printf_percent$$00000003  c_w.l(_printf_f.o)
    0x080001ea   0x00000006   Code   RO          990    .ARM.Collect$$_printf_percent$$00000009  c_w.l(_printf_d.o)
    0x080001f0   0x00000006   Code   RO          988    .ARM.Collect$$_printf_percent$$00000014  c_w.l(_printf_s.o)
    0x080001f6   0x00000004   Code   RO         1082    .ARM.Collect$$_printf_percent$$00000017  c_w.l(_printf_percent_end.o)
    0x080001fa   0x00000006   Code   RO         1185    .ARM.Collect$$libinit$$00000000  c_w.l(libinit.o)
    0x08000200   0x00000000   Code   RO         1188    .ARM.Collect$$libinit$$00000006  c_w.l(libinit2.o)
    0x08000200   0x00000000   Code   RO         1190    .ARM.Collect$$libinit$$00000008  c_w.l(libinit2.o)
    0x08000200   0x00000000   Code   RO         1192    .ARM.Collect$$libinit$$0000000A  c_w.l(libinit2.o)
    0x08000200   0x00000006   Code   RO         1193    .ARM.Collect$$libinit$$0000000B  c_w.l(libinit2.o)
    0x08000206   0x00000000   Code   RO         1195    .ARM.Collect$$libinit$$0000000D  c_w.l(libinit2.o)
    0x08000206   0x0000000c   Code   RO         1196    .ARM.Collect$$libinit$$0000000E  c_w.l(libinit2.o)
    0x08000212   0x00000000   Code   RO         1197    .ARM.Collect$$libinit$$0000000F  c_w.l(libinit2.o)
    0x08000212   0x00000000   Code   RO         1199    .ARM.Collect$$libinit$$00000011  c_w.l(libinit2.o)
    0x08000212   0x0000000a   Code   RO         1200    .ARM.Collect$$libinit$$00000012  c_w.l(libinit2.o)
    0x0800021c   0x00000000   Code   RO         1201    .ARM.Collect$$libinit$$00000013  c_w.l(libinit2.o)
    0x0800021c   0x00000000   Code   RO         1203    .ARM.Collect$$libinit$$00000015  c_w.l(libinit2.o)
    0x0800021c   0x00000000   Code   RO         1205    .ARM.Collect$$libinit$$00000017  c_w.l(libinit2.o)
    0x0800021c   0x00000000   Code   RO         1207    .ARM.Collect$$libinit$$00000019  c_w.l(libinit2.o)
    0x0800021c   0x00000000   Code   RO         1209    .ARM.Collect$$libinit$$0000001B  c_w.l(libinit2.o)
    0x0800021c   0x00000000   Code   RO         1211    .ARM.Collect$$libinit$$0000001D  c_w.l(libinit2.o)
    0x0800021c   0x00000000   Code   RO         1213    .ARM.Collect$$libinit$$0000001F  c_w.l(libinit2.o)
    0x0800021c   0x00000000   Code   RO         1215    .ARM.Collect$$libinit$$00000021  c_w.l(libinit2.o)
    0x0800021c   0x00000000   Code   RO         1219    .ARM.Collect$$libinit$$00000028  c_w.l(libinit2.o)
    0x0800021c   0x00000000   Code   RO         1221    .ARM.Collect$$libinit$$0000002A  c_w.l(libinit2.o)
    0x0800021c   0x00000000   Code   RO         1223    .ARM.Collect$$libinit$$0000002C  c_w.l(libinit2.o)
    0x0800021c   0x00000000   Code   RO         1225    .ARM.Collect$$libinit$$0000002E  c_w.l(libinit2.o)
    0x0800021c   0x00000002   Code   RO         1226    .ARM.Collect$$libinit$$0000002F  c_w.l(libinit2.o)
    0x0800021e   0x00000002   Code   RO         1259    .ARM.Collect$$libshutdown$$00000000  c_w.l(libshutdown.o)
    0x08000220   0x00000000   Code   RO         1269    .ARM.Collect$$libshutdown$$00000003  c_w.l(libshutdown2.o)
    0x08000220   0x00000000   Code   RO         1272    .ARM.Collect$$libshutdown$$00000006  c_w.l(libshutdown2.o)
    0x08000220   0x00000000   Code   RO         1275    .ARM.Collect$$libshutdown$$00000009  c_w.l(libshutdown2.o)
    0x08000220   0x00000000   Code   RO         1277    .ARM.Collect$$libshutdown$$0000000B  c_w.l(libshutdown2.o)
    0x08000220   0x00000000   Code   RO         1280    .ARM.Collect$$libshutdown$$0000000E  c_w.l(libshutdown2.o)
    0x08000220   0x00000002   Code   RO         1281    .ARM.Collect$$libshutdown$$0000000F  c_w.l(libshutdown2.o)
    0x08000222   0x00000000   Code   RO         1064    .ARM.Collect$$rtentry$$00000000  c_w.l(rtentry.o)
    0x08000222   0x00000000   Code   RO         1102    .ARM.Collect$$rtentry$$00000002  c_w.l(rtentry2.o)
    0x08000222   0x00000006   Code   RO         1114    .ARM.Collect$$rtentry$$00000004  c_w.l(rtentry4.o)
    0x08000228   0x00000000   Code   RO         1104    .ARM.Collect$$rtentry$$00000009  c_w.l(rtentry2.o)
    0x08000228   0x00000004   Code   RO         1105    .ARM.Collect$$rtentry$$0000000A  c_w.l(rtentry2.o)
    0x0800022c   0x00000000   Code   RO         1107    .ARM.Collect$$rtentry$$0000000C  c_w.l(rtentry2.o)
    0x0800022c   0x00000008   Code   RO         1108    .ARM.Collect$$rtentry$$0000000D  c_w.l(rtentry2.o)
    0x08000234   0x00000002   Code   RO         1227    .ARM.Collect$$rtexit$$00000000  c_w.l(rtexit.o)
    0x08000236   0x00000000   Code   RO         1234    .ARM.Collect$$rtexit$$00000002  c_w.l(rtexit2.o)
    0x08000236   0x00000004   Code   RO         1235    .ARM.Collect$$rtexit$$00000003  c_w.l(rtexit2.o)
    0x0800023a   0x00000006   Code   RO         1236    .ARM.Collect$$rtexit$$00000004  c_w.l(rtexit2.o)
    0x08000240   0x00000124   Code   RO            1    .text               main.o
    0x08000364   0x0000002c   Code   RO          154    .text               stm32f10x_it.o
    0x08000390   0x000001c8   Code   RO          189    .text               system_stm32f10x.o
    0x08000558   0x0000019c   Code   RO          207    .text               spi.o
    0x080006f4   0x00000360   Code   RO          228    .text               flash.o
    0x08000a54   0x00000524   Code   RO          247    .text               mmc_sd.o
    0x08000f78   0x00000928   Code   RO          269    .text               rc522.o
    0x080018a0   0x000001bc   Code   RO          285    .text               hx711.o
    0x08001a5c   0x00000380   Code   RO          297    .text               rtc.o
    0x08001ddc   0x00000238   Code   RO          317    .text               ch376_spi.o
    0x08002014   0x0000000e   Code   RO          335    .text               debug.o
    0x08002022   0x00000002   PAD
    0x08002024   0x00000880   Code   RO          347    .text               file_sys.o
    0x080028a4   0x000000f4   Code   RO          362    .text               delay.o
    0x08002998   0x0000000c   Code   RO          376    .text               sys.o
    0x080029a4   0x00000744   Code   RO          388    .text               usart.o
    0x080030e8   0x00000040   Code   RO          425    .text               startup_stm32f10x_hd.o
    0x08003128   0x00000358   Code   RO          429    .text               stm32f10x_gpio.o
    0x08003480   0x000003a0   Code   RO          441    .text               stm32f10x_rcc.o
    0x08003820   0x0000040c   Code   RO          455    .text               stm32f10x_usart.o
    0x08003c2c   0x000000dc   Code   RO          467    .text               misc.o
    0x08003d08   0x00000310   Code   RO          479    .text               stm32f10x_spi.o
    0x08004018   0x000000ac   Code   RO          491    .text               stm32f10x_bkp.o
    0x080040c4   0x00000150   Code   RO          503    .text               stm32f10x_rtc.o
    0x08004214   0x000000cc   Code   RO          515    .text               stm32f10x_pwr.o
    0x080042e0   0x00000250   Code   RO          527    .text               stm32f10x_dma.o
    0x08004530   0x000008c0   Code   RO          554    .text               os_core.o
    0x08004df0   0x0000085c   Code   RO          574    .text               os_flag.o
    0x0800564c   0x000005e8   Code   RO          616    .text               os_q.o
    0x08005c34   0x000007ec   Code   RO          640    .text               os_task.o
    0x08006420   0x000001c0   Code   RO          652    .text               os_time.o
    0x080065e0   0x000000ae   Code   RO          670    .text               os_cpu_c.o
    0x0800668e   0x00000002   PAD
    0x08006690   0x000000b4   Code   RO          692    .text               os_cpu_a.o
    0x08006744   0x0000019c   Code   RO          695    .text               malloc.o
    0x080068e0   0x00000198   Code   RO          715    .text               exfuns.o
    0x08006a78   0x0000328a   Code   RO          768    .text               ff.o
    0x08009d02   0x00000002   PAD
    0x08009d04   0x000001f8   Code   RO          789    .text               diskio.o
    0x08009efc   0x000000b4   Code   RO          808    .text               cc936.o
    0x08009fb0   0x00000500   Code   RO          831    .text               ezui_ctrl.o
    0x0800a4b0   0x00000278   Code   RO          861    .text               util.o
    0x0800a728   0x00000ed8   Code   RO          873    .text               lcdopt.o
    0x0800b600   0x000021b0   Code   RO          894    .text               fileopt.o
    0x0800d7b0   0x0000035c   Code   RO          910    .text               ch376_api.o
    0x0800db0c   0x00000002   Code   RO          928    .text               c_w.l(use_no_semi_2.o)
    0x0800db0e   0x00000002   PAD
    0x0800db10   0x0000002c   Code   RO          932    .text               c_w.l(__2sprintf.o)
    0x0800db3c   0x00000052   Code   RO          940    .text               c_w.l(_printf_pad.o)
    0x0800db8e   0x00000052   Code   RO          942    .text               c_w.l(_printf_str.o)
    0x0800dbe0   0x00000078   Code   RO          944    .text               c_w.l(_printf_dec.o)
    0x0800dc58   0x0000010e   Code   RO          975    .text               c_w.l(__printf_wp.o)
    0x0800dd66   0x0000001a   Code   RO          993    .text               c_w.l(atoi.o)
    0x0800dd80   0x0000000c   Code   RO          995    .text               c_w.l(strtok.o)
    0x0800dd8c   0x00000024   Code   RO          998    .text               c_w.l(strstr.o)
    0x0800ddb0   0x00000048   Code   RO         1000    .text               c_w.l(strcpy.o)
    0x0800ddf8   0x0000003e   Code   RO         1002    .text               c_w.l(strlen.o)
    0x0800de36   0x00000096   Code   RO         1004    .text               c_w.l(strncmp.o)
    0x0800decc   0x00000018   Code   RO         1006    .text               c_w.l(strcat.o)
    0x0800dee4   0x0000008a   Code   RO         1008    .text               c_w.l(rt_memcpy_v6.o)
    0x0800df6e   0x00000064   Code   RO         1010    .text               c_w.l(rt_memcpy_w.o)
    0x0800dfd2   0x00000044   Code   RO         1012    .text               c_w.l(rt_memclr.o)
    0x0800e016   0x0000004e   Code   RO         1014    .text               c_w.l(rt_memclr_w.o)
    0x0800e064   0x00000080   Code   RO         1016    .text               c_w.l(strcmpv7m.o)
    0x0800e0e4   0x00000006   Code   RO         1018    .text               c_w.l(heapauxi.o)
    0x0800e0ea   0x00000002   Code   RO         1062    .text               c_w.l(use_no_semi.o)
    0x0800e0ec   0x00000008   Code   RO         1068    .text               c_w.l(rt_errno_addr_intlibspace.o)
    0x0800e0f4   0x000000b8   Code   RO         1070    .text               c_w.l(_printf_intcommon.o)
    0x0800e1ac   0x00000420   Code   RO         1072    .text               c_w.l(_printf_fp_dec.o)
    0x0800e5cc   0x00000030   Code   RO         1074    .text               c_w.l(_printf_char_common.o)
    0x0800e5fc   0x0000000a   Code   RO         1076    .text               c_w.l(_sputc.o)
    0x0800e606   0x0000002c   Code   RO         1078    .text               c_w.l(_printf_char.o)
    0x0800e632   0x00000070   Code   RO         1083    .text               c_w.l(strtol.o)
    0x0800e6a2   0x00000002   PAD
    0x0800e6a4   0x00000044   Code   RO         1085    .text               c_w.l(strtok_int.o)
    0x0800e6e8   0x00000008   Code   RO         1098    .text               c_w.l(libspace.o)
    0x0800e6f0   0x00000010   Code   RO         1116    .text               c_w.l(rt_ctype_table.o)
    0x0800e700   0x00000008   Code   RO         1121    .text               c_w.l(rt_locale_intlibspace.o)
    0x0800e708   0x0000008a   Code   RO         1123    .text               c_w.l(lludiv10.o)
    0x0800e792   0x00000002   PAD
    0x0800e794   0x00000080   Code   RO         1125    .text               c_w.l(_printf_fp_infnan.o)
    0x0800e814   0x0000009e   Code   RO         1129    .text               c_w.l(_strtoul.o)
    0x0800e8b2   0x00000002   PAD
    0x0800e8b4   0x000000e4   Code   RO         1131    .text               c_w.l(bigflt0.o)
    0x0800e998   0x00000020   Code   RO         1163    .text               c_w.l(strcspn.o)
    0x0800e9b8   0x0000001c   Code   RO         1165    .text               c_w.l(strspn.o)
    0x0800e9d4   0x0000004a   Code   RO         1171    .text               c_w.l(sys_stackheap_outer.o)
    0x0800ea1e   0x0000001c   Code   RO         1173    .text               c_w.l(_chval.o)
    0x0800ea3a   0x0000000c   Code   RO         1178    .text               c_w.l(exit.o)
    0x0800ea46   0x00000002   PAD
    0x0800ea48   0x00000008   Code   RO         1243    .text               c_w.l(rt_fp_status_addr_intlibspace.o)
    0x0800ea50   0x0000003e   Code   RO         1134    CL$$btod_d2e        c_w.l(btod.o)
    0x0800ea8e   0x00000046   Code   RO         1136    CL$$btod_d2e_denorm_low  c_w.l(btod.o)
    0x0800ead4   0x00000060   Code   RO         1135    CL$$btod_d2e_norm_op1  c_w.l(btod.o)
    0x0800eb34   0x00000338   Code   RO         1144    CL$$btod_div_common  c_w.l(btod.o)
    0x0800ee6c   0x000000c6   Code   RO         1141    CL$$btod_e2e        c_w.l(btod.o)
    0x0800ef32   0x00000028   Code   RO         1138    CL$$btod_ediv       c_w.l(btod.o)
    0x0800ef5a   0x00000028   Code   RO         1137    CL$$btod_emul       c_w.l(btod.o)
    0x0800ef82   0x00000244   Code   RO         1143    CL$$btod_mult_common  c_w.l(btod.o)
    0x0800f1c6   0x00000028   Code   RO         1169    i.__ARM_fpclassify  m_ws.l(fpclassify.o)
    0x0800f1ee   0x0000000e   Code   RO          977    i._is_digit         c_w.l(__printf_wp.o)
    0x0800f1fc   0x0000002c   Code   RO         1161    locale$$code        c_w.l(lc_numeric_c.o)
    0x0800f228   0x0000002c   Code   RO         1176    locale$$code        c_w.l(lc_ctype_c.o)
    0x0800f254   0x00000062   Code   RO         1022    x$fpl$d2f           fz_ws.l(d2f.o)
    0x0800f2b6   0x00000002   PAD
    0x0800f2b8   0x00000150   Code   RO         1024    x$fpl$dadd          fz_ws.l(daddsub_clz.o)
    0x0800f408   0x00000154   Code   RO         1030    x$fpl$dmul          fz_ws.l(dmul.o)
    0x0800f55c   0x0000009c   Code   RO         1087    x$fpl$dnaninf       fz_ws.l(dnaninf.o)
    0x0800f5f8   0x0000000c   Code   RO         1089    x$fpl$dretinf       fz_ws.l(dretinf.o)
    0x0800f604   0x000001d4   Code   RO         1026    x$fpl$dsub          fz_ws.l(daddsub_clz.o)
    0x0800f7d8   0x00000056   Code   RO         1032    x$fpl$f2d           fz_ws.l(f2d.o)
    0x0800f82e   0x00000002   PAD
    0x0800f830   0x000000c4   Code   RO         1034    x$fpl$fadd          fz_ws.l(faddsub_clz.o)
    0x0800f8f4   0x00000018   Code   RO         1091    x$fpl$fcmpinf       fz_ws.l(fcmpi.o)
    0x0800f90c   0x00000184   Code   RO         1041    x$fpl$fdiv          fz_ws.l(fdiv.o)
    0x0800fa90   0x00000068   Code   RO         1044    x$fpl$feqf          fz_ws.l(feqf.o)
    0x0800faf8   0x00000036   Code   RO         1046    x$fpl$ffix          fz_ws.l(ffix.o)
    0x0800fb2e   0x00000002   PAD
    0x0800fb30   0x00000030   Code   RO         1051    x$fpl$fflt          fz_ws.l(fflt_clz.o)
    0x0800fb60   0x00000026   Code   RO         1050    x$fpl$ffltu         fz_ws.l(fflt_clz.o)
    0x0800fb86   0x00000002   PAD
    0x0800fb88   0x00000068   Code   RO         1056    x$fpl$fleqf         fz_ws.l(fleqf.o)
    0x0800fbf0   0x00000102   Code   RO         1058    x$fpl$fmul          fz_ws.l(fmul.o)
    0x0800fcf2   0x0000008c   Code   RO         1093    x$fpl$fnaninf       fz_ws.l(fnaninf.o)
    0x0800fd7e   0x0000000e   Code   RO         1231    x$fpl$fpinit        fz_ws.l(fpinit.o)
    0x0800fd8c   0x0000000a   Code   RO         1095    x$fpl$fretinf       fz_ws.l(fretinf.o)
    0x0800fd96   0x00000014   Code   RO         1035    x$fpl$frsb          fz_ws.l(faddsub_clz.o)
    0x0800fdaa   0x00000002   PAD
    0x0800fdac   0x000000ea   Code   RO         1036    x$fpl$fsub          fz_ws.l(faddsub_clz.o)
    0x0800fe96   0x00000004   Code   RO         1060    x$fpl$printf1       fz_ws.l(printf1.o)
    0x0800fe9a   0x00000000   Code   RO         1097    x$fpl$usenofp       fz_ws.l(usenofp.o)
    0x0800fe9a   0x00000018   Data   RO          299    .constdata          rtc.o
    0x0800feb2   0x00000100   Data   RO          556    .constdata          os_core.o
    0x0800ffb2   0x0000003a   Data   RO          769    .constdata          ff.o
    0x0800ffec   0x0002acc8   Data   RO          809    .constdata          cc936.o
    0x0803acb4   0x00000005   Data   RO          875    .constdata          lcdopt.o
    0x0803acb9   0x00000003   PAD
    0x0803acbc   0x00000094   Data   RO         1132    .constdata          c_w.l(bigflt0.o)
    0x0803ad50   0x00000058   Data   RO          717    .conststring        exfuns.o
    0x0803ada8   0x00000020   Data   RO         1306    Region$$Table       anon$$obj.o
    0x0803adc8   0x0000001c   Data   RO         1160    locale$$data        c_w.l(lc_numeric_c.o)
    0x0803ade4   0x00000110   Data   RO         1175    locale$$data        c_w.l(lc_ctype_c.o)


    Execution Region RW_IRAM1 (Base: 0x20000000, Size: 0x0000e588, Max: 0x00010000, ABSOLUTE, COMPRESSED[0x00000170])

    Base Addr    Size         Type   Attr      Idx    E Section Name        Object

    0x20000000   0x00000014   Data   RW          190    .data               system_stm32f10x.o
    0x20000014   0x00000002   Data   RW          230    .data               flash.o
    0x20000016   0x00000001   Data   RW          248    .data               mmc_sd.o
    0x20000017   0x00000001   PAD
    0x20000018   0x00000002   Data   RW          300    .data               rtc.o
    0x2000001a   0x00000004   Data   RW          363    .data               delay.o
    0x2000001e   0x00000002   PAD
    0x20000020   0x00000090   Data   RW          390    .data               usart.o
    0x200000b0   0x00000014   Data   RW          442    .data               stm32f10x_rcc.o
    0x200000c4   0x00000048   Data   RW          557    .data               os_core.o
    0x2000010c   0x00000014   Data   RW          698    .data               malloc.o
    0x20000120   0x00000154   Data   RW          718    .data               exfuns.o
    0x20000274   0x0000000a   Data   RW          770    .data               ff.o
    0x2000027e   0x00000002   Data   RW          790    .data               diskio.o
    0x20000280   0x00000160   Data   RW          876    .data               lcdopt.o
    0x200003e0   0x00000002   Data   RW          912    .data               ch376_api.o
    0x200003e2   0x00000002   PAD
    0x200003e4   0x00000004   Data   RW          996    .data               c_w.l(strtok.o)
    0x200003e8   0x00000500   Zero   RW            2    .bss                main.o
    0x200008e8   0x00000012   Zero   RW          208    .bss                spi.o
    0x200008fa   0x00001000   Zero   RW          229    .bss                flash.o
    0x200018fa   0x0000000a   Zero   RW          298    .bss                rtc.o
    0x20001904   0x00000348   Zero   RW          389    .bss                usart.o
    0x20001c4c   0x00000a80   Zero   RW          555    .bss                os_core.o
    0x200026cc   0x0000b280   Zero   RW          696    .bss                malloc.o
    0x2000d94c   0x00000064   Zero   RW          874    .bss                lcdopt.o
    0x2000d9b0   0x00000174   Zero   RW          895    .bss                fileopt.o
    0x2000db24   0x00000400   Zero   RW          911    .bss                ch376_api.o
    0x2000df24   0x00000060   Zero   RW         1099    .bss                c_w.l(libspace.o)
    0x2000df84   0x00000004   PAD
    0x2000df88   0x00000200   Zero   RW          423    HEAP                startup_stm32f10x_hd.o
    0x2000e188   0x00000400   Zero   RW          422    STACK               startup_stm32f10x_hd.o


==============================================================================

Image component sizes


      Code (inc. data)   RO Data    RW Data    ZI Data      Debug   Object Name

       180         18     175304          0          0       1945   cc936.o
       860         30          0          2       1024       2851   ch376_api.o
       568         36          0          0          0      13382   ch376_spi.o
         0          0          0          0          0         32   core_cm3.o
        14          0          0          0          0        471   debug.o
       244         20          0          4          0       1187   delay.o
       504         12          0          2          0       3366   diskio.o
       408         20         88        340          0       4928   exfuns.o
      1280         16          0          0          0       7627   ezui_ctrl.o
     12938        140         58         10          0      35926   ff.o
      2176          6          0          0          0      11475   file_sys.o
      8624        668          0          0        372      20763   fileopt.o
       864         22          0          2       4096       4285   flash.o
       444         24          0          0          0       1271   hx711.o
      3800        104          5        352        100      18897   lcdopt.o
       292         48          0          0       1280     257200   main.o
       412          6          0         20      45696       3709   malloc.o
       220         20          0          0          0       1665   misc.o
      1316         16          0          1          0       5658   mmc_sd.o
      2240        218        256         72       2688      14687   os_core.o
       180         36          0          0          0        260   os_cpu_a.o
       174          0          0          0          0      10106   os_cpu_c.o
      2140         44          0          0          0       6972   os_flag.o
      1512         30          0          0          0       5621   os_q.o
      2028         70          0          0          0       7645   os_task.o
       448         30          0          0          0       1782   os_time.o
      2344         14          0          0          0       7468   rc522.o
       896         30         24          2         10       3682   rtc.o
       412         16          0          0         18       8244   spi.o
        64         26        304          0       1536        728   startup_stm32f10x_hd.o
       172          8          0          0          0       3252   stm32f10x_bkp.o
       592          8          0          0          0       4230   stm32f10x_dma.o
       856         40          0          0          0       5601   stm32f10x_gpio.o
        44          0          0          0          0      10896   stm32f10x_it.o
       204         16          0          0          0       1887   stm32f10x_pwr.o
       928         44          0         20          0       8712   stm32f10x_rcc.o
       336          4          0          0          0       2658   stm32f10x_rtc.o
       784         12          0          0          0       6502   stm32f10x_spi.o
      1036         20          0          0          0       8344   stm32f10x_usart.o
        12          0          0          0          0        385   sys.o
       456         36          0         20          0       1543   system_stm32f10x.o
      1860         62          0        144        840       6513   usart.o
       632         40          0          0          0       1694   util.o

    ----------------------------------------------------------------------
     55500       2010     176074        996      57660     526050   Object Totals
         0          0         32          0          0          0   (incl. Generated)
         6          0          3          5          0          0   (incl. Padding)

    ----------------------------------------------------------------------

      Code (inc. data)   RO Data    RW Data    ZI Data      Debug   Library Member Name

        44          6          0          0          0         84   __2sprintf.o
        90          0          0          0          0          0   __dczerorl2.o
         8          0          0          0          0         68   __main.o
       284          0          0          0          0        156   __printf_wp.o
        52          8          0          0          0          0   __scatter.o
        28          0          0          0          0          0   __scatter_zi.o
        28          0          0          0          0         68   _chval.o
        44          0          0          0          0        108   _printf_char.o
        48          6          0          0          0         96   _printf_char_common.o
         6          0          0          0          0          0   _printf_d.o
       120         18          0          0          0         92   _printf_dec.o
         6          0          0          0          0          0   _printf_f.o
      1056          0          0          0          0        216   _printf_fp_dec.o
       128         16          0          0          0         84   _printf_fp_infnan.o
       184          0          0          0          0         88   _printf_intcommon.o
        82          0          0          0          0        108   _printf_pad.o
         0          0          0          0          0          0   _printf_percent.o
         4          0          0          0          0          0   _printf_percent_end.o
         6          0          0          0          0          0   _printf_s.o
        82          0          0          0          0         80   _printf_str.o
        10          0          0          0          0         68   _sputc.o
       158          0          0          0          0         92   _strtoul.o
        26          0          0          0          0         80   atoi.o
       228          6        148          0          0         96   bigflt0.o
      1910        128          0          0          0        672   btod.o
        12          0          0          0          0         72   exit.o
         6          0          0          0          0        152   heapauxi.o
        44         10        272          0          0         76   lc_ctype_c.o
        44         10         28          0          0         76   lc_numeric_c.o
         6          0          0          0          0          0   libinit.o
        30          0          0          0          0          0   libinit2.o
         2          0          0          0          0          0   libshutdown.o
         2          0          0          0          0          0   libshutdown2.o
         8          4          0          0         96         68   libspace.o
       138          0          0          0          0         80   lludiv10.o
        16          4          0          0          0         76   rt_ctype_table.o
         8          4          0          0          0         68   rt_errno_addr_intlibspace.o
         8          4          0          0          0         68   rt_fp_status_addr_intlibspace.o
         8          4          0          0          0         68   rt_locale_intlibspace.o
        68          0          0          0          0         68   rt_memclr.o
        78          0          0          0          0         80   rt_memclr_w.o
       138          0          0          0          0         68   rt_memcpy_v6.o
       100          0          0          0          0         80   rt_memcpy_w.o
         0          0          0          0          0          0   rtentry.o
        12          0          0          0          0          0   rtentry2.o
         6          0          0          0          0          0   rtentry4.o
         2          0          0          0          0          0   rtexit.o
        10          0          0          0          0          0   rtexit2.o
        24          0          0          0          0         68   strcat.o
       128          0          0          0          0         68   strcmpv7m.o
        72          0          0          0          0         80   strcpy.o
        32          0          0          0          0         80   strcspn.o
        62          0          0          0          0         76   strlen.o
       150          0          0          0          0         80   strncmp.o
        28          0          0          0          0         80   strspn.o
        36          0          0          0          0         80   strstr.o
        12          6          0          4          0         68   strtok.o
        68          4          0          0          0         84   strtok_int.o
       112          0          0          0          0         88   strtol.o
        74          0          0          0          0         80   sys_stackheap_outer.o
         2          0          0          0          0         68   use_no_semi.o
         2          0          0          0          0         68   use_no_semi_2.o
        98          4          0          0          0         92   d2f.o
       804         16          0          0          0        280   daddsub_clz.o
       340         12          0          0          0        104   dmul.o
       156          4          0          0          0         92   dnaninf.o
        12          0          0          0          0         68   dretinf.o
        86          4          0          0          0         84   f2d.o
       450          8          0          0          0        236   faddsub_clz.o
        24          0          0          0          0         68   fcmpi.o
       388         76          0          0          0         96   fdiv.o
       104          4          0          0          0         84   feqf.o
        54          4          0          0          0         84   ffix.o
        86          0          0          0          0        136   fflt_clz.o
       104          4          0          0          0         84   fleqf.o
       258          4          0          0          0         84   fmul.o
       140          4          0          0          0         84   fnaninf.o
        14          0          0          0          0         76   fpinit.o
        10          0          0          0          0         68   fretinf.o
         4          0          0          0          0         68   printf1.o
         0          0          0          0          0          0   usenofp.o
        40          0          0          0          0         68   fpclassify.o

    ----------------------------------------------------------------------
      9374        382        448          4        100       6380   Library Totals
        22          0          0          0          4          0   (incl. Padding)

    ----------------------------------------------------------------------

      Code (inc. data)   RO Data    RW Data    ZI Data      Debug   Library Name

      6180        238        448          4         96       4424   c_w.l
      3132        144          0          0          0       1888   fz_ws.l
        40          0          0          0          0         68   m_ws.l

    ----------------------------------------------------------------------
      9374        382        448          4        100       6380   Library Totals

    ----------------------------------------------------------------------

==============================================================================


      Code (inc. data)   RO Data    RW Data    ZI Data      Debug   

     64874       2392     176522       1000      57760     524422   Grand Totals
     64874       2392     176522        368      57760     524422   ELF Image Totals (compressed)
     64874       2392     176522        368          0          0   ROM Totals

==============================================================================

    Total RO  Size (Code + RO Data)               241396 ( 235.74kB)
    Total RW  Size (RW Data + ZI Data)             58760 (  57.38kB)
    Total ROM Size (Code + RO Data + RW Data)     241764 ( 236.10kB)

==============================================================================

